###############################################################################
#
# IAR ELF Linker V7.20.2.7424/W32 for ARM                 17/Mar/2026  09:09:29
# Copyright 2007-2014 IAR Systems AB.
#
#    Output file  =  
#        F:\’Ņ„“Ó\UD\CHREP_V3_2\EWARM\vectorPWM Configuration\Exe\vectorPWM
#        Configuration.out
#    Map file     =  
#        F:\’Ņ„“Ó\UD\CHREP_V3_2\EWARM\vectorPWM Configuration/List\vectorPWM
#        Configuration.map
#    Command line =  
#        "F:\’Ņ„“Ó\UD\CHREP_V3_2\EWARM\vectorPWM Configuration\Obj\alarms.o"
#        "F:\’Ņ„“Ó\UD\CHREP_V3_2\EWARM\vectorPWM Configuration\Obj\Appl_sec.o"
#        "F:\’Ņ„“Ó\UD\CHREP_V3_2\EWARM\vectorPWM Configuration\Obj\archive.o"
#        "F:\’Ņ„“Ó\UD\CHREP_V3_2\EWARM\vectorPWM Configuration\Obj\at_com4.o"
#        "F:\’Ņ„“Ó\UD\CHREP_V3_2\EWARM\vectorPWM Configuration\Obj\base1.o"
#        "F:\’Ņ„“Ó\UD\CHREP_V3_2\EWARM\vectorPWM Configuration\Obj\bvi.o"
#        "F:\’Ņ„“Ó\UD\CHREP_V3_2\EWARM\vectorPWM Configuration\Obj\coder.o"
#        "F:\’Ņ„“Ó\UD\CHREP_V3_2\EWARM\vectorPWM Configuration\Obj\DS18B20.o"
#        "F:\’Ņ„“Ó\UD\CHREP_V3_2\EWARM\vectorPWM Configuration\Obj\dynaGram.o"
#        "F:\’Ņ„“Ó\UD\CHREP_V3_2\EWARM\vectorPWM Configuration\Obj\fppp3.o"
#        "F:\’Ņ„“Ó\UD\CHREP_V3_2\EWARM\vectorPWM Configuration\Obj\fram.o"
#        "F:\’Ņ„“Ó\UD\CHREP_V3_2\EWARM\vectorPWM Configuration\Obj\fram1.o"
#        "F:\’Ņ„“Ó\UD\CHREP_V3_2\EWARM\vectorPWM
#        Configuration\Obj\init_pin_sim.o"
#        "F:\’Ņ„“Ó\UD\CHREP_V3_2\EWARM\vectorPWM Configuration\Obj\InitParam.o"
#        "F:\’Ņ„“Ó\UD\CHREP_V3_2\EWARM\vectorPWM Configuration\Obj\interr4.o"
#        "F:\’Ņ„“Ó\UD\CHREP_V3_2\EWARM\vectorPWM
#        Configuration\Obj\ldterm_stm.o"
#        "F:\’Ņ„“Ó\UD\CHREP_V3_2\EWARM\vectorPWM Configuration\Obj\ledmd.o"
#        "F:\’Ņ„“Ó\UD\CHREP_V3_2\EWARM\vectorPWM Configuration\Obj\logs.o"
#        "F:\’Ņ„“Ó\UD\CHREP_V3_2\EWARM\vectorPWM Configuration\Obj\main.o"
#        "F:\’Ņ„“Ó\UD\CHREP_V3_2\EWARM\vectorPWM Configuration\Obj\modbus.o"
#        "F:\’Ņ„“Ó\UD\CHREP_V3_2\EWARM\vectorPWM Configuration\Obj\pins_stm.o"
#        "F:\’Ņ„“Ó\UD\CHREP_V3_2\EWARM\vectorPWM
#        Configuration\Obj\prepare_sim800.o"
#        "F:\’Ņ„“Ó\UD\CHREP_V3_2\EWARM\vectorPWM Configuration\Obj\pwm.o"
#        "F:\’Ņ„“Ó\UD\CHREP_V3_2\EWARM\vectorPWM
#        Configuration\Obj\read_write.o"
#        "F:\’Ņ„“Ó\UD\CHREP_V3_2\EWARM\vectorPWM
#        Configuration\Obj\scenario_softAP.o"
#        "F:\’Ņ„“Ó\UD\CHREP_V3_2\EWARM\vectorPWM Configuration\Obj\spvisor.o"
#        "F:\’Ņ„“Ó\UD\CHREP_V3_2\EWARM\vectorPWM Configuration\Obj\sram_rtc.o"
#        "F:\’Ņ„“Ó\UD\CHREP_V3_2\EWARM\vectorPWM
#        Configuration\Obj\startup_stm32f417xx.o"
#        "F:\’Ņ„“Ó\UD\CHREP_V3_2\EWARM\vectorPWM
#        Configuration\Obj\stm32f4xx_hal.o"
#        "F:\’Ņ„“Ó\UD\CHREP_V3_2\EWARM\vectorPWM
#        Configuration\Obj\stm32f4xx_hal_adc.o"
#        "F:\’Ņ„“Ó\UD\CHREP_V3_2\EWARM\vectorPWM
#        Configuration\Obj\stm32f4xx_hal_adc_ex.o"
#        "F:\’Ņ„“Ó\UD\CHREP_V3_2\EWARM\vectorPWM
#        Configuration\Obj\stm32f4xx_hal_cortex.o"
#        "F:\’Ņ„“Ó\UD\CHREP_V3_2\EWARM\vectorPWM
#        Configuration\Obj\stm32f4xx_hal_dac.o"
#        "F:\’Ņ„“Ó\UD\CHREP_V3_2\EWARM\vectorPWM
#        Configuration\Obj\stm32f4xx_hal_dma.o"
#        "F:\’Ņ„“Ó\UD\CHREP_V3_2\EWARM\vectorPWM
#        Configuration\Obj\stm32f4xx_hal_dma_ex.o"
#        "F:\’Ņ„“Ó\UD\CHREP_V3_2\EWARM\vectorPWM
#        Configuration\Obj\stm32f4xx_hal_flash.o"
#        "F:\’Ņ„“Ó\UD\CHREP_V3_2\EWARM\vectorPWM
#        Configuration\Obj\stm32f4xx_hal_flash_ex.o"
#        "F:\’Ņ„“Ó\UD\CHREP_V3_2\EWARM\vectorPWM
#        Configuration\Obj\stm32f4xx_hal_flash_ramfunc.o"
#        "F:\’Ņ„“Ó\UD\CHREP_V3_2\EWARM\vectorPWM
#        Configuration\Obj\stm32f4xx_hal_gpio.o"
#        "F:\’Ņ„“Ó\UD\CHREP_V3_2\EWARM\vectorPWM
#        Configuration\Obj\stm32f4xx_hal_iwdg.o"
#        "F:\’Ņ„“Ó\UD\CHREP_V3_2\EWARM\vectorPWM
#        Configuration\Obj\stm32f4xx_hal_msp.o"
#        "F:\’Ņ„“Ó\UD\CHREP_V3_2\EWARM\vectorPWM
#        Configuration\Obj\stm32f4xx_hal_pcd.o"
#        "F:\’Ņ„“Ó\UD\CHREP_V3_2\EWARM\vectorPWM
#        Configuration\Obj\stm32f4xx_hal_pcd_ex.o"
#        "F:\’Ņ„“Ó\UD\CHREP_V3_2\EWARM\vectorPWM
#        Configuration\Obj\stm32f4xx_hal_pwr.o"
#        "F:\’Ņ„“Ó\UD\CHREP_V3_2\EWARM\vectorPWM
#        Configuration\Obj\stm32f4xx_hal_pwr_ex.o"
#        "F:\’Ņ„“Ó\UD\CHREP_V3_2\EWARM\vectorPWM
#        Configuration\Obj\stm32f4xx_hal_rcc.o"
#        "F:\’Ņ„“Ó\UD\CHREP_V3_2\EWARM\vectorPWM
#        Configuration\Obj\stm32f4xx_hal_rcc_ex.o"
#        "F:\’Ņ„“Ó\UD\CHREP_V3_2\EWARM\vectorPWM
#        Configuration\Obj\stm32f4xx_hal_rng.o"
#        "F:\’Ņ„“Ó\UD\CHREP_V3_2\EWARM\vectorPWM
#        Configuration\Obj\stm32f4xx_hal_rtc.o"
#        "F:\’Ņ„“Ó\UD\CHREP_V3_2\EWARM\vectorPWM
#        Configuration\Obj\stm32f4xx_hal_rtc_ex.o"
#        "F:\’Ņ„“Ó\UD\CHREP_V3_2\EWARM\vectorPWM
#        Configuration\Obj\stm32f4xx_hal_spi.o"
#        "F:\’Ņ„“Ó\UD\CHREP_V3_2\EWARM\vectorPWM
#        Configuration\Obj\stm32f4xx_hal_tim.o"
#        "F:\’Ņ„“Ó\UD\CHREP_V3_2\EWARM\vectorPWM
#        Configuration\Obj\stm32f4xx_hal_tim_ex.o"
#        "F:\’Ņ„“Ó\UD\CHREP_V3_2\EWARM\vectorPWM
#        Configuration\Obj\stm32f4xx_hal_uart.o"
#        "F:\’Ņ„“Ó\UD\CHREP_V3_2\EWARM\vectorPWM
#        Configuration\Obj\stm32f4xx_it.o"
#        "F:\’Ņ„“Ó\UD\CHREP_V3_2\EWARM\vectorPWM
#        Configuration\Obj\stm32f4xx_ll_usb.o"
#        "F:\’Ņ„“Ó\UD\CHREP_V3_2\EWARM\vectorPWM
#        Configuration\Obj\system_stm32f4xx.o"
#        "F:\’Ņ„“Ó\UD\CHREP_V3_2\EWARM\vectorPWM
#        Configuration\Obj\usb_device.o"
#        "F:\’Ņ„“Ó\UD\CHREP_V3_2\EWARM\vectorPWM Configuration\Obj\usbd_cdc.o"
#        "F:\’Ņ„“Ó\UD\CHREP_V3_2\EWARM\vectorPWM
#        Configuration\Obj\usbd_cdc_if.o"
#        "F:\’Ņ„“Ó\UD\CHREP_V3_2\EWARM\vectorPWM Configuration\Obj\usbd_conf.o"
#        "F:\’Ņ„“Ó\UD\CHREP_V3_2\EWARM\vectorPWM Configuration\Obj\usbd_core.o"
#        "F:\’Ņ„“Ó\UD\CHREP_V3_2\EWARM\vectorPWM
#        Configuration\Obj\usbd_ctlreq.o"
#        "F:\’Ņ„“Ó\UD\CHREP_V3_2\EWARM\vectorPWM Configuration\Obj\usbd_desc.o"
#        "F:\’Ņ„“Ó\UD\CHREP_V3_2\EWARM\vectorPWM
#        Configuration\Obj\usbd_ioreq.o"
#        "F:\’Ņ„“Ó\UD\CHREP_V3_2\EWARM\vectorPWM Configuration\Obj\utils.o" -o
#        "F:\’Ņ„“Ó\UD\CHREP_V3_2\EWARM\vectorPWM Configuration\Exe\vectorPWM
#        Configuration.out" --map "F:\’Ņ„“Ó\UD\CHREP_V3_2\EWARM\vectorPWM
#        Configuration/List\vectorPWM Configuration.map" --config
#        F:\’Ņ„“Ó\UD\CHREP_V3_2\EWARM\stm32f417xx_flash.icf --semihosting
#        --entry __iar_program_start --redirect
#        __iar_sh_stdout=__iar_sh_stdout_swo "C:\Program Files (x86)\IAR
#        Systems\Embedded Workbench
#        7.0_2\arm\CMSIS\Lib\IAR\iar_cortexM4lf_math.a" --vfe
#
###############################################################################

*******************************************************************************
*** RUNTIME MODEL ATTRIBUTES
***

CppFlavor       = *
__Heap_Handler  = DLMalloc
__SystemLibrary = DLib


*******************************************************************************
*** PLACEMENT SUMMARY
***

"A1":  place at 0x08000000 { ro section .intvec };
"P1":  place in [from 0x08000000 to 0x080fffff] { ro };
"P2":  place in [from 0x20000000 to 0x2001ffff] { rw, block CSTACK, block HEAP };

  Section             Kind        Address     Size  Object
  -------             ----        -------     ----  ------
"A1":                                        0x188
  .intvec             ro code  0x08000000    0x188  startup_stm32f417xx.o [1]
                             - 0x08000188    0x188

"P1":                                      0x45897
  .rodata             const    0x08000188   0x9450  InitParam.o [1]
  .text               ro code  0x080095d8   0x62d6  main.o [1]
  .text               ro code  0x0800f8ae     0x22  zero_init3.o [6]
  .text               ro code  0x0800f8d0     0x1c  sqrtf.o [5]
  .text               ro code  0x0800f8ec     0x4e  FltToDbl.o [5]
  .text               ro code  0x0800f93a      0xa  xsprout.o [3]
  .text               ro code  0x0800f944    0x100  sqrt.o [5]
  .text               ro code  0x0800fa44     0x90  DblToFlt.o [5]
  .text               ro code  0x0800fad4   0x1640  sram_rtc.o [1]
  .text               ro code  0x08011114    0x3d0  stm32f4xx_hal_gpio.o [1]
  .text               ro code  0x080114e4   0x3b10  modbus.o [1]
  .text               ro code  0x08014ff4     0x88  stm32f4xx_hal.o [1]
  .text               ro code  0x0801507c   0x127c  alarms.o [1]
  .text               ro code  0x080162f8    0x424  stm32f4xx_hal_rtc.o [1]
  .text               ro code  0x0801671c     0x76  ABImemcpy_unaligned.o [6]
  .rodata             const    0x08016792      0x2  utils.o [1]
  .text               ro code  0x08016794   0x10b4  archive.o [1]
  .text               ro code  0x08017848    0xa84  stm32f4xx_hal_uart.o [1]
  .text               ro code  0x080182cc   0x4120  pwm.o [1]
  .text               ro code  0x0801c3ec    0x598  fram.o [1]
  .text               ro code  0x0801c984   0x1204  dynaGram.o [1]
  .text               ro code  0x0801db88    0x59c  stm32f4xx_hal_adc.o [1]
  .text               ro code  0x0801e124    0x190  stm32f4xx_hal_adc_ex.o [1]
  .text               ro code  0x0801e2b4    0x848  DS18B20.o [1]
  .text               ro code  0x0801eafc     0x34  usb_device.o [1]
  .text               ro code  0x0801eb30   0x3eb2  base1.o [1]
  .text               ro code  0x080229e2     0xd4  stm32f4xx_hal_iwdg.o [1]
  .text               ro code  0x08022ab8    0x26c  bvi.o [1]
  .text               ro code  0x08022d24    0xeb4  scenario_softAP.o [1]
  .text               ro code  0x08023bd8    0xbd4  interr4.o [1]
  .text               ro code  0x080247ac    0x142  stm32f4xx_hal_dac.o [1]
  .text               ro code  0x080248f0     0xd4  usbd_cdc_if.o [1]
  .text               ro code  0x080249c4     0x30  I32ToDbl.o [5]
  .text               ro code  0x080249f4     0x2e  DblCmpLe.o [5]
  .text               ro code  0x08024a24    0x760  stm32f4xx_hal_rcc.o [1]
  .text               ro code  0x08025184    0x18c  stm32f4xx_hal_cortex.o [1]
  .text               ro code  0x08025310    0xafc  stm32f4xx_hal_tim.o [1]
  .text               ro code  0x08025e0c     0xa6  stm32f4xx_hal_tim_ex.o [1]
  .text               ro code  0x08025eb4     0x64  init_pin_sim.o [1]
  .text               ro code  0x08025f18     0x5e  arm_rms_q15.o [4]
  .text               ro code  0x08025f78     0xe8  DblAdd.o [5]
  .text               ro code  0x08026060    0x246  DblDiv.o [5]
  .text               ro code  0x080262a8    0x180  DblSub.o [5]
  .text               ro code  0x08026428      0xc  iarEdom.o [6]
  .text               ro code  0x08026434     0x18  stm32f4xx_hal_pwr.o [1]
  .text               ro code  0x0802644c     0x40  stm32f4xx_hal_pwr_ex.o [1]
  .text               ro code  0x0802648c    0x174  stm32f4xx_hal_rcc_ex.o [1]
  .text               ro code  0x08026600     0x26  stm32f4xx_hal_rtc_ex.o [1]
  .text               ro code  0x08026628     0x2c  DblToI32.o [5]
  .text               ro code  0x08026654    0x274  prepare_sim800.o [1]
  .text               ro code  0x080268c8    0x5cc  stm32f4xx_hal_msp.o [1]
  .text               ro code  0x08026e94   0x395a  stm32f4xx_hal_dma.o [1]
  .text               ro code  0x0802a7f0     0x34  arm_sin_q15.o [4]
  .text               ro code  0x0802a824     0x44  arm_cos_q15.o [4]
  .text               ro code  0x0802a868     0x2e  DblCmpGe.o [5]
  .text               ro code  0x0802a898     0x50  atanf.o [5]
  .text               ro code  0x0802a8e8    0x346  usbd_core.o [1]
  .text               ro code  0x0802ac30    0x2f4  usbd_cdc.o [1]
  .text               ro code  0x0802af24     0xe0  pins_stm.o [1]
  .text               ro code  0x0802b004    0x568  fram1.o [1]
  .text               ro code  0x0802b56c    0x140  logs.o [1]
  .text               ro code  0x0802b6ac    0x1d4  coder.o [1]
  .text               ro code  0x0802b880   0x3a70  fppp3.o [1]
  .text               ro code  0x0802f2f0     0x30  spvisor.o [1]
  .text               ro code  0x0802f320   0x1420  at_com4.o [1]
  .text               ro code  0x08030740    0x154  ldterm_stm.o [1]
  .text               ro code  0x08030894     0x34  sprintf.o [3]
  .text               ro code  0x080308c8   0x4934  utils.o [1]
  .text               ro code  0x080351fc     0xc4  ledmd.o [1]
  .text               ro code  0x080352c0    0x132  I64DivMod.o [6]
  .text               ro code  0x080353f4     0xec  arm_sqrt_q15.o [4]
  .text               ro code  0x080354e0      0xc  errno.o [3]
  .text               ro code  0x080354ec     0xa4  xatanf.o [5]
  .text               ro code  0x08035590    0x52e  usbd_conf.o [1]
  .text               ro code  0x08035ac0    0x65e  usbd_ctlreq.o [1]
  .text               ro code  0x0803611e     0xbc  usbd_ioreq.o [1]
  .text               ro code  0x080361dc   0x1500  dlmalloc.o [3]
  .text               ro code  0x080376dc     0xe0  rand.o [3]
  .text               ro code  0x080377bc     0x66  ABImemset.o [6]
  .text               ro code  0x08037824     0x44  strcpy_unaligned.o [6]
  .text               ro code  0x08037868     0x36  strlen.o [6]
  .text               ro code  0x080378a0    0xc02  xprintflarge_nomb.o [3]
  .text               ro code  0x080384a4     0x42  strcmp_unaligned.o [6]
  .text               ro code  0x080384e6      0x8  atoi.o [3]
  .text               ro code  0x080384ee     0x1c  strcat.o [3]
  .text               ro code  0x0803850c    0x18c  read_write.o [1]
  .text               ro code  0x08038698      0x8  atol.o [3]
  .text               ro code  0x080386a0     0x10  atof.o [5]
  .text               ro code  0x080386b0   0x3098  InitParam.o [1]
  .text               ro code  0x0803b748      0x2  I64DivZer.o [6]
  .text               ro code  0x0803b74a      0x2  xtls.o [3]
  .text               ro code  0x0803b74c    0x9e8  stm32f4xx_hal_pcd.o [1]
  .text               ro code  0x0803c134     0x6e  stm32f4xx_hal_pcd_ex.o [1]
  .text               ro code  0x0803c1a2      0x6  abort.o [3]
  .text               ro code  0x0803c1a8     0x2c  xgetmemchunk.o [3]
  .text               ro code  0x0803c1d4     0x16  strchr.o [6]
  .text               ro code  0x0803c1ec     0x58  memchr.o [6]
  .text               ro code  0x0803c244     0x42  xdnorm.o [5]
  .text               ro code  0x0803c288    0x1a2  DblMul.o [5]
  .text               ro code  0x0803c42a      0xe  div.o [3]
  .text               ro code  0x0803c438    0x19c  xstoul.o [3]
  .text               ro code  0x0803c5d4    0x168  xstod.o [5]
  .text               ro code  0x0803c73c    0xd3c  stm32f4xx_ll_usb.o [1]
  .text               ro code  0x0803d478     0x14  exit.o [7]
  .text               ro code  0x0803d48c    0x130  xstopfx.o [3]
  .text               ro code  0x0803d5bc    0x1b4  xstoflt.o [3]
  .text               ro code  0x0803d770    0x200  xdtento.o [5]
  .text               ro code  0x0803d970    0x200  xstoxflt.o [3]
  .text               ro code  0x0803db70    0x114  xdscale.o [5]
  .text               ro code  0x0803dc84     0x20  DblCmpEq.o [5]
  .text               ro code  0x0803dca4     0x56  xdunscal.o [5]
  .rodata             const    0x0803dcfc   0x2f40  InitParam.o [1]
  .rodata             const    0x08040c3c    0x9d8  InitParam.o [1]
  .rodata             const    0x08041614    0x604  InitParam.o [1]
  .rodata             const    0x08041c18    0x404  arm_common_tables.o [4]
  .rodata             const    0x0804201c    0x200  fppp3.o [1]
  .text               ro code  0x0804221c    0x1c2  lz77_init.o [6]
  .rodata             const    0x080423e0    0x164  utils.o [1]
  .rodata             const    0x08042544    0x148  utils.o [1]
  .rodata             const    0x0804268c    0x100  base1.o [1]
  .rodata             const    0x0804278c    0x100  base1.o [1]
  .text               ro code  0x0804288c     0xe0  usbd_desc.o [1]
  .text               ro code  0x0804296c     0xd8  stm32f4xx_it.o [1]
  .rodata             const    0x08042a44     0xd4  utils.o [1]
  .rodata             const    0x08042b18     0xac  utils.o [1]
  .rodata             const    0x08042bc4     0x94  utils.o [1]
  .text               ro code  0x08042c58     0x6c  system_stm32f4xx.o [1]
  .rodata             const    0x08042cc4     0x68  InitParam.o [1]
  .rodata             const    0x08042d2c     0x64  InitParam.o [1]
  .rodata             const    0x08042d90     0x58  utils.o [1]
  .rodata             const    0x08042de8     0x54  utils.o [1]
  .rodata             const    0x08042e3c     0x50  InitParam.o [1]
  .rodata             const    0x08042e8c     0x4c  InitParam.o [1]
  .rodata             const    0x08042ed8     0x4c  InitParam.o [1]
  .rodata             const    0x08042f24     0x4c  InitParam.o [1]
  .rodata             const    0x08042f70     0x4c  InitParam.o [1]
  .rodata             const    0x08042fbc     0x4c  InitParam.o [1]
  .rodata             const    0x08043008     0x4c  InitParam.o [1]
  .rodata             const    0x08043054     0x4c  InitParam.o [1]
  .rodata             const    0x080430a0     0x4c  InitParam.o [1]
  .rodata             const    0x080430ec     0x4c  InitParam.o [1]
  .rodata             const    0x08043138     0x4c  utils.o [1]
  .rodata             const    0x08043184     0x4c  utils.o [1]
  .rodata             const    0x080431d0     0x44  utils.o [1]
  .rodata             const    0x08043214     0x40  InitParam.o [1]
  .rodata             const    0x08043254     0x40  InitParam.o [1]
  .rodata             const    0x08043294     0x40  InitParam.o [1]
  .rodata             const    0x080432d4     0x3c  InitParam.o [1]
  .rodata             const    0x08043310     0x3c  InitParam.o [1]
  .rodata             const    0x0804334c     0x3c  InitParam.o [1]
  .rodata             const    0x08043388     0x38  InitParam.o [1]
  .rodata             const    0x080433c0     0x38  InitParam.o [1]
  .rodata             const    0x080433f8     0x38  InitParam.o [1]
  .rodata             const    0x08043430     0x38  InitParam.o [1]
  .rodata             const    0x08043468     0x38  InitParam.o [1]
  .rodata             const    0x080434a0     0x38  InitParam.o [1]
  .rodata             const    0x080434d8     0x38  InitParam.o [1]
  .rodata             const    0x08043510     0x38  InitParam.o [1]
  .rodata             const    0x08043548     0x38  InitParam.o [1]
  .rodata             const    0x08043580     0x38  InitParam.o [1]
  .rodata             const    0x080435b8     0x38  InitParam.o [1]
  .rodata             const    0x080435f0     0x38  InitParam.o [1]
  .rodata             const    0x08043628     0x38  InitParam.o [1]
  .rodata             const    0x08043660     0x38  InitParam.o [1]
  .rodata             const    0x08043698     0x38  InitParam.o [1]
  .rodata             const    0x080436d0     0x34  InitParam.o [1]
  .rodata             const    0x08043704     0x34  InitParam.o [1]
  .rodata             const    0x08043738     0x34  InitParam.o [1]
  .rodata             const    0x0804376c     0x34  InitParam.o [1]
  .rodata             const    0x080437a0     0x34  InitParam.o [1]
  .rodata             const    0x080437d4     0x34  InitParam.o [1]
  .rodata             const    0x08043808     0x34  InitParam.o [1]
  .rodata             const    0x0804383c     0x34  InitParam.o [1]
  .rodata             const    0x08043870     0x34  InitParam.o [1]
  .rodata             const    0x080438a4     0x34  InitParam.o [1]
  .rodata             const    0x080438d8     0x34  InitParam.o [1]
  .rodata             const    0x0804390c     0x34  InitParam.o [1]
  .rodata             const    0x08043940     0x34  InitParam.o [1]
  .rodata             const    0x08043974     0x34  InitParam.o [1]
  .rodata             const    0x080439a8     0x34  InitParam.o [1]
  .rodata             const    0x080439dc     0x34  InitParam.o [1]
  .rodata             const    0x08043a10     0x34  InitParam.o [1]
  .rodata             const    0x08043a44     0x34  InitParam.o [1]
  .rodata             const    0x08043a78     0x34  InitParam.o [1]
  .rodata             const    0x08043aac     0x34  InitParam.o [1]
  .rodata             const    0x08043ae0     0x34  InitParam.o [1]
  .rodata             const    0x08043b14     0x34  InitParam.o [1]
  .rodata             const    0x08043b48     0x34  InitParam.o [1]
  .rodata             const    0x08043b7c     0x34  InitParam.o [1]
  .rodata             const    0x08043bb0     0x30  InitParam.o [1]
  .rodata             const    0x08043be0     0x30  InitParam.o [1]
  .rodata             const    0x08043c10     0x30  InitParam.o [1]
  .rodata             const    0x08043c40     0x30  InitParam.o [1]
  .rodata             const    0x08043c70     0x30  InitParam.o [1]
  .rodata             const    0x08043ca0     0x30  InitParam.o [1]
  .rodata             const    0x08043cd0     0x30  InitParam.o [1]
  .rodata             const    0x08043d00     0x30  InitParam.o [1]
  .rodata             const    0x08043d30     0x30  InitParam.o [1]
  .rodata             const    0x08043d60     0x30  InitParam.o [1]
  .rodata             const    0x08043d90     0x30  InitParam.o [1]
  .rodata             const    0x08043dc0     0x30  InitParam.o [1]
  .rodata             const    0x08043df0     0x30  InitParam.o [1]
  .rodata             const    0x08043e20     0x30  utils.o [1]
  .rodata             const    0x08043e50     0x2c  InitParam.o [1]
  .rodata             const    0x08043e7c     0x2c  InitParam.o [1]
  .rodata             const    0x08043ea8     0x2c  InitParam.o [1]
  .rodata             const    0x08043ed4     0x2c  InitParam.o [1]
  .rodata             const    0x08043f00     0x2c  InitParam.o [1]
  .rodata             const    0x08043f2c     0x2c  InitParam.o [1]
  .rodata             const    0x08043f58     0x2c  scenario_softAP.o [1]
  .rodata             const    0x08043f84     0x2c  utils.o [1]
  .rodata             const    0x08043fb0     0x2c  utils.o [1]
  .rodata             const    0x08043fdc     0x2c  utils.o [1]
  .rodata             const    0x08044008     0x28  InitParam.o [1]
  .rodata             const    0x08044030     0x28  InitParam.o [1]
  .rodata             const    0x08044058     0x28  InitParam.o [1]
  .rodata             const    0x08044080     0x28  InitParam.o [1]
  .rodata             const    0x080440a8     0x28  InitParam.o [1]
  .rodata             const    0x080440d0     0x28  InitParam.o [1]
  .rodata             const    0x080440f8     0x28  InitParam.o [1]
  .rodata             const    0x08044120     0x28  InitParam.o [1]
  .rodata             const    0x08044148     0x28  InitParam.o [1]
  .rodata             const    0x08044170     0x28  InitParam.o [1]
  .rodata             const    0x08044198     0x28  InitParam.o [1]
  .rodata             const    0x080441c0     0x28  InitParam.o [1]
  .rodata             const    0x080441e8     0x28  InitParam.o [1]
  .rodata             const    0x08044210     0x28  InitParam.o [1]
  .rodata             const    0x08044238     0x28  ldterm_stm.o [1]
  .rodata             const    0x08044260     0x28  main.o [1]
  .rodata             const    0x08044288     0x28  usbd_conf.o [1]
  .rodata             const    0x080442b0     0x28  utils.o [1]
  .rodata             const    0x080442d8     0x28  utils.o [1]
  .rodata             const    0x08044300     0x28  utils.o [1]
  .rodata             const    0x08044328     0x28  utils.o [1]
  .rodata             const    0x08044350     0x28  utils.o [1]
  .text               ro code  0x08044378     0x28  data_init.o [6]
  .rodata             const    0x080443a0     0x24  InitParam.o [1]
  .rodata             const    0x080443c4     0x24  InitParam.o [1]
  .rodata             const    0x080443e8     0x24  InitParam.o [1]
  .rodata             const    0x0804440c     0x24  InitParam.o [1]
  .rodata             const    0x08044430     0x24  InitParam.o [1]
  .rodata             const    0x08044454     0x24  InitParam.o [1]
  .rodata             const    0x08044478     0x24  InitParam.o [1]
  .rodata             const    0x0804449c     0x24  InitParam.o [1]
  .rodata             const    0x080444c0     0x24  InitParam.o [1]
  .rodata             const    0x080444e4     0x24  InitParam.o [1]
  .rodata             const    0x08044508     0x24  InitParam.o [1]
  .rodata             const    0x0804452c     0x24  InitParam.o [1]
  .rodata             const    0x08044550     0x24  InitParam.o [1]
  .rodata             const    0x08044574     0x24  InitParam.o [1]
  .rodata             const    0x08044598     0x24  InitParam.o [1]
  .rodata             const    0x080445bc     0x24  InitParam.o [1]
  .rodata             const    0x080445e0     0x24  InitParam.o [1]
  .rodata             const    0x08044604     0x24  InitParam.o [1]
  .rodata             const    0x08044628     0x24  InitParam.o [1]
  .rodata             const    0x0804464c     0x24  InitParam.o [1]
  .rodata             const    0x08044670     0x24  InitParam.o [1]
  .rodata             const    0x08044694     0x24  InitParam.o [1]
  .rodata             const    0x080446b8     0x24  InitParam.o [1]
  .rodata             const    0x080446dc     0x24  InitParam.o [1]
  .rodata             const    0x08044700     0x24  utils.o [1]
  .rodata             const    0x08044724     0x24  utils.o [1]
  .rodata             const    0x08044748     0x24  utils.o [1]
  .rodata             const    0x0804476c     0x24  utils.o [1]
  .iar.init_table     const    0x08044790     0x2c  - Linker created -
  .rodata             const    0x080447bc     0x20  InitParam.o [1]
  .rodata             const    0x080447dc     0x20  InitParam.o [1]
  .rodata             const    0x080447fc     0x20  InitParam.o [1]
  .rodata             const    0x0804481c     0x20  InitParam.o [1]
  .rodata             const    0x0804483c     0x20  InitParam.o [1]
  .rodata             const    0x0804485c     0x20  InitParam.o [1]
  .rodata             const    0x0804487c     0x20  InitParam.o [1]
  .rodata             const    0x0804489c     0x20  InitParam.o [1]
  .rodata             const    0x080448bc     0x20  InitParam.o [1]
  .rodata             const    0x080448dc     0x20  InitParam.o [1]
  .rodata             const    0x080448fc     0x20  InitParam.o [1]
  .rodata             const    0x0804491c     0x20  utils.o [1]
  .rodata             const    0x0804493c     0x20  utils.o [1]
  .rodata             const    0x0804495c     0x20  utils.o [1]
  .rodata             const    0x0804497c     0x20  utils.o [1]
  .rodata             const    0x0804499c     0x20  utils.o [1]
  .rodata             const    0x080449bc     0x20  utils.o [1]
  .rodata             const    0x080449dc     0x20  utils.o [1]
  .rodata             const    0x080449fc     0x20  utils.o [1]
  .rodata             const    0x08044a1c     0x20  utils.o [1]
  .rodata             const    0x08044a3c     0x20  utils.o [1]
  .rodata             const    0x08044a5c     0x20  utils.o [1]
  .rodata             const    0x08044a7c     0x20  utils.o [1]
  .rodata             const    0x08044a9c     0x20  utils.o [1]
  .rodata             const    0x08044abc     0x1c  InitParam.o [1]
  .rodata             const    0x08044ad8     0x1c  InitParam.o [1]
  .rodata             const    0x08044af4     0x1c  InitParam.o [1]
  .rodata             const    0x08044b10     0x1c  InitParam.o [1]
  .rodata             const    0x08044b2c     0x1c  InitParam.o [1]
  .rodata             const    0x08044b48     0x1c  InitParam.o [1]
  .rodata             const    0x08044b64     0x1c  InitParam.o [1]
  .rodata             const    0x08044b80     0x1c  InitParam.o [1]
  .rodata             const    0x08044b9c     0x1c  InitParam.o [1]
  .rodata             const    0x08044bb8     0x1c  InitParam.o [1]
  .rodata             const    0x08044bd4     0x1c  InitParam.o [1]
  .rodata             const    0x08044bf0     0x1c  InitParam.o [1]
  .rodata             const    0x08044c0c     0x1c  InitParam.o [1]
  .rodata             const    0x08044c28     0x1c  InitParam.o [1]
  .rodata             const    0x08044c44     0x1c  InitParam.o [1]
  .rodata             const    0x08044c60     0x1c  InitParam.o [1]
  .rodata             const    0x08044c7c     0x1c  InitParam.o [1]
  .rodata             const    0x08044c98     0x1c  InitParam.o [1]
  .rodata             const    0x08044cb4     0x1c  InitParam.o [1]
  .rodata             const    0x08044cd0     0x1c  InitParam.o [1]
  .rodata             const    0x08044cec     0x1c  InitParam.o [1]
  .rodata             const    0x08044d08     0x1c  InitParam.o [1]
  .rodata             const    0x08044d24     0x1c  InitParam.o [1]
  .rodata             const    0x08044d40     0x1c  InitParam.o [1]
  .rodata             const    0x08044d5c     0x1c  InitParam.o [1]
  .rodata             const    0x08044d78     0x1c  InitParam.o [1]
  .rodata             const    0x08044d94     0x1c  InitParam.o [1]
  .rodata             const    0x08044db0     0x1c  InitParam.o [1]
  .rodata             const    0x08044dcc     0x1c  InitParam.o [1]
  .rodata             const    0x08044de8     0x1c  scenario_softAP.o [1]
  .rodata             const    0x08044e04     0x1c  utils.o [1]
  .rodata             const    0x08044e20     0x1c  utils.o [1]
  .rodata             const    0x08044e3c     0x1c  utils.o [1]
  .rodata             const    0x08044e58     0x1c  utils.o [1]
  .rodata             const    0x08044e74     0x1c  utils.o [1]
  .rodata             const    0x08044e90     0x1c  utils.o [1]
  .rodata             const    0x08044eac     0x1c  utils.o [1]
  .rodata             const    0x08044ec8     0x1c  utils.o [1]
  .rodata             const    0x08044ee4     0x1c  utils.o [1]
  .rodata             const    0x08044f00     0x1c  utils.o [1]
  .rodata             const    0x08044f1c     0x1c  utils.o [1]
  .text               ro code  0x08044f38     0x1a  fpinit_M.o [5]
  .text               ro code  0x08044f54     0x1a  cmain.o [6]
  .text               ro code  0x08044f6e      0x4  low_level_init.o [3]
  .text               ro code  0x08044f72      0x4  exit.o [3]
  .text               ro code  0x08044f78      0xa  cexit.o [6]
  .rodata             const    0x08044f84     0x18  InitParam.o [1]
  .rodata             const    0x08044f9c     0x18  InitParam.o [1]
  .rodata             const    0x08044fb4     0x18  InitParam.o [1]
  .rodata             const    0x08044fcc     0x18  InitParam.o [1]
  .rodata             const    0x08044fe4     0x18  scenario_softAP.o [1]
  .rodata             const    0x08044ffc     0x18  sram_rtc.o [1]
  .rodata             const    0x08045014     0x18  sram_rtc.o [1]
  .rodata             const    0x0804502c     0x18  usbd_desc.o [1]
  .rodata             const    0x08045044     0x18  utils.o [1]
  .rodata             const    0x0804505c     0x18  utils.o [1]
  .rodata             const    0x08045074     0x18  utils.o [1]
  .rodata             const    0x0804508c     0x14  InitParam.o [1]
  .rodata             const    0x080450a0     0x14  InitParam.o [1]
  .rodata             const    0x080450b4     0x14  InitParam.o [1]
  .rodata             const    0x080450c8     0x14  InitParam.o [1]
  .rodata             const    0x080450dc     0x14  usbd_desc.o [1]
  .rodata             const    0x080450f0     0x14  utils.o [1]
  .rodata             const    0x08045104     0x14  utils.o [1]
  .rodata             const    0x08045118     0x14  utils.o [1]
  .rodata             const    0x0804512c     0x14  utils.o [1]
  .rodata             const    0x08045140     0x14  utils.o [1]
  .rodata             const    0x08045154     0x10  at_com4.o [1]
  .rodata             const    0x08045164     0x10  at_com4.o [1]
  .rodata             const    0x08045174     0x10  at_com4.o [1]
  .rodata             const    0x08045184     0x10  at_com4.o [1]
  .rodata             const    0x08045194     0x10  at_com4.o [1]
  .rodata             const    0x080451a4     0x10  at_com4.o [1]
  .rodata             const    0x080451b4     0x10  at_com4.o [1]
  .rodata             const    0x080451c4     0x10  at_com4.o [1]
  .rodata             const    0x080451d4     0x10  coder.o [1]
  .rodata             const    0x080451e4     0x10  coder.o [1]
  .rodata             const    0x080451f4     0x10  fppp3.o [1]
  .rodata             const    0x08045204     0x10  InitParam.o [1]
  .rodata             const    0x08045214     0x10  InitParam.o [1]
  .rodata             const    0x08045224     0x10  InitParam.o [1]
  .rodata             const    0x08045234     0x10  ldterm_stm.o [1]
  .rodata             const    0x08045244     0x10  scenario_softAP.o [1]
  .rodata             const    0x08045254     0x10  scenario_softAP.o [1]
  .rodata             const    0x08045264     0x10  scenario_softAP.o [1]
  .rodata             const    0x08045274     0x10  scenario_softAP.o [1]
  .rodata             const    0x08045284     0x10  stm32f4xx_hal_rcc.o [1]
  .rodata             const    0x08045294     0x10  usbd_desc.o [1]
  .rodata             const    0x080452a4     0x10  usbd_desc.o [1]
  .rodata             const    0x080452b4     0x10  utils.o [1]
  .rodata             const    0x080452c4     0x10  utils.o [1]
  .rodata             const    0x080452d4     0x10  utils.o [1]
  .rodata             const    0x080452e4     0x10  utils.o [1]
  .rodata             const    0x080452f4     0x10  utils.o [1]
  .rodata             const    0x08045304     0x10  utils.o [1]
  .rodata             const    0x08045314     0x10  utils.o [1]
  .rodata             const    0x08045324     0x10  utils.o [1]
  .text               ro code  0x08045334     0x10  startup_stm32f417xx.o [1]
  .rodata             const    0x08045344      0xc  at_com4.o [1]
  .rodata             const    0x08045350      0xc  at_com4.o [1]
  .rodata             const    0x0804535c      0xc  at_com4.o [1]
  .rodata             const    0x08045368      0xc  at_com4.o [1]
  .rodata             const    0x08045374      0xc  at_com4.o [1]
  .rodata             const    0x08045380      0xc  at_com4.o [1]
  .rodata             const    0x0804538c      0xc  at_com4.o [1]
  .rodata             const    0x08045398      0xc  at_com4.o [1]
  .rodata             const    0x080453a4      0xc  at_com4.o [1]
  .rodata             const    0x080453b0      0xc  at_com4.o [1]
  .rodata             const    0x080453bc      0xc  base1.o [1]
  .rodata             const    0x080453c8      0xc  base1.o [1]
  .rodata             const    0x080453d4      0xc  base1.o [1]
  .rodata             const    0x080453e0      0xc  base1.o [1]
  .rodata             const    0x080453ec      0xc  base1.o [1]
  .rodata             const    0x080453f8      0xc  base1.o [1]
  .rodata             const    0x08045404      0xc  base1.o [1]
  .rodata             const    0x08045410      0xc  base1.o [1]
  .rodata             const    0x0804541c      0xc  base1.o [1]
  .rodata             const    0x08045428      0xc  base1.o [1]
  .rodata             const    0x08045434      0xc  base1.o [1]
  .rodata             const    0x08045440      0xc  base1.o [1]
  .rodata             const    0x0804544c      0xc  base1.o [1]
  .rodata             const    0x08045458      0xc  fppp3.o [1]
  .rodata             const    0x08045464      0xc  fppp3.o [1]
  .rodata             const    0x08045470      0xc  fppp3.o [1]
  .rodata             const    0x0804547c      0xc  fppp3.o [1]
  .rodata             const    0x08045488      0xc  fppp3.o [1]
  .rodata             const    0x08045494      0xc  fppp3.o [1]
  .rodata             const    0x080454a0      0xc  InitParam.o [1]
  .rodata             const    0x080454ac      0xc  InitParam.o [1]
  .rodata             const    0x080454b8      0xc  InitParam.o [1]
  .rodata             const    0x080454c4      0xc  InitParam.o [1]
  .rodata             const    0x080454d0      0xc  InitParam.o [1]
  .rodata             const    0x080454dc      0xc  InitParam.o [1]
  .rodata             const    0x080454e8      0xc  InitParam.o [1]
  .rodata             const    0x080454f4      0xc  InitParam.o [1]
  .rodata             const    0x08045500      0xc  InitParam.o [1]
  .rodata             const    0x0804550c      0xc  InitParam.o [1]
  .rodata             const    0x08045518      0xc  InitParam.o [1]
  .rodata             const    0x08045524      0xc  InitParam.o [1]
  .rodata             const    0x08045530      0xc  InitParam.o [1]
  .rodata             const    0x0804553c      0xc  InitParam.o [1]
  .rodata             const    0x08045548      0xc  InitParam.o [1]
  .rodata             const    0x08045554      0xc  spvisor.o [1]
  .rodata             const    0x08045560      0xc  usbd_desc.o [1]
  .rodata             const    0x0804556c      0xc  utils.o [1]
  .rodata             const    0x08045578      0xc  utils.o [1]
  .rodata             const    0x08045584      0xc  utils.o [1]
  .rodata             const    0x08045590      0xc  utils.o [1]
  .rodata             const    0x0804559c      0xc  utils.o [1]
  .rodata             const    0x080455a8      0xc  utils.o [1]
  .rodata             const    0x080455b4      0xc  utils.o [1]
  .rodata             const    0x080455c0      0xc  utils.o [1]
  .rodata             const    0x080455cc      0xc  utils.o [1]
  .rodata             const    0x080455d8      0xc  utils.o [1]
  .rodata             const    0x080455e4      0xc  utils.o [1]
  .text               ro code  0x080455f0      0xc  cstartup_M.o [6]
  .rodata             const    0x080455fc      0x8  at_com4.o [1]
  .rodata             const    0x08045604      0x8  at_com4.o [1]
  .rodata             const    0x0804560c      0x8  at_com4.o [1]
  .rodata             const    0x08045614      0x8  at_com4.o [1]
  .rodata             const    0x0804561c      0x8  at_com4.o [1]
  .rodata             const    0x08045624      0x8  at_com4.o [1]
  .rodata             const    0x0804562c      0x8  at_com4.o [1]
  .rodata             const    0x08045634      0x8  base1.o [1]
  .rodata             const    0x0804563c      0x8  base1.o [1]
  .rodata             const    0x08045644      0x8  base1.o [1]
  .rodata             const    0x0804564c      0x8  base1.o [1]
  .rodata             const    0x08045654      0x8  base1.o [1]
  .rodata             const    0x0804565c      0x8  base1.o [1]
  .rodata             const    0x08045664      0x8  fppp3.o [1]
  .rodata             const    0x0804566c      0x8  fppp3.o [1]
  .rodata             const    0x08045674      0x8  ldterm_stm.o [1]
  .rodata             const    0x0804567c      0x8  scenario_softAP.o [1]
  .rodata             const    0x08045684      0x8  scenario_softAP.o [1]
  .rodata             const    0x0804568c      0x8  utils.o [1]
  .rodata             const    0x08045694      0x8  utils.o [1]
  .rodata             const    0x0804569c      0x8  utils.o [1]
  .rodata             const    0x080456a4      0x8  utils.o [1]
  .rodata             const    0x080456ac      0x8  utils.o [1]
  .rodata             const    0x080456b4      0x8  utils.o [1]
  .rodata             const    0x080456bc      0x8  utils.o [1]
  .rodata             const    0x080456c4      0x8  utils.o [1]
  .rodata             const    0x080456cc      0x8  utils.o [1]
  .rodata             const    0x080456d4      0x4  utils.o [1]
  .rodata             const    0x080456d8      0x4  utils.o [1]
  .rodata             const    0x080456dc      0x4  utils.o [1]
  .text               ro code  0x080456e0      0x4  startup_stm32f417xx.o [1]
  .text               ro code  0x080456e4      0x4  startup_stm32f417xx.o [1]
  .text               ro code  0x080456e8      0x4  startup_stm32f417xx.o [1]
  .text               ro code  0x080456ec      0x4  startup_stm32f417xx.o [1]
  .text               ro code  0x080456f0      0x4  startup_stm32f417xx.o [1]
  .text               ro code  0x080456f4      0x4  startup_stm32f417xx.o [1]
  .text               ro code  0x080456f8      0x4  startup_stm32f417xx.o [1]
  .text               ro code  0x080456fc      0x4  startup_stm32f417xx.o [1]
  .text               ro code  0x08045700      0x4  startup_stm32f417xx.o [1]
  .text               ro code  0x08045704      0x4  startup_stm32f417xx.o [1]
  .text               ro code  0x08045708      0x4  startup_stm32f417xx.o [1]
  .text               ro code  0x0804570c      0x4  startup_stm32f417xx.o [1]
  .text               ro code  0x08045710      0x4  startup_stm32f417xx.o [1]
  .text               ro code  0x08045714      0x4  startup_stm32f417xx.o [1]
  .text               ro code  0x08045718      0x4  startup_stm32f417xx.o [1]
  .text               ro code  0x0804571c      0x4  startup_stm32f417xx.o [1]
  .text               ro code  0x08045720      0x4  startup_stm32f417xx.o [1]
  .text               ro code  0x08045724      0x4  startup_stm32f417xx.o [1]
  .text               ro code  0x08045728      0x4  startup_stm32f417xx.o [1]
  .text               ro code  0x0804572c      0x4  startup_stm32f417xx.o [1]
  .text               ro code  0x08045730      0x4  startup_stm32f417xx.o [1]
  .text               ro code  0x08045734      0x4  startup_stm32f417xx.o [1]
  .text               ro code  0x08045738      0x4  startup_stm32f417xx.o [1]
  .text               ro code  0x0804573c      0x4  startup_stm32f417xx.o [1]
  .text               ro code  0x08045740      0x4  startup_stm32f417xx.o [1]
  .text               ro code  0x08045744      0x4  startup_stm32f417xx.o [1]
  .text               ro code  0x08045748      0x4  startup_stm32f417xx.o [1]
  .text               ro code  0x0804574c      0x4  startup_stm32f417xx.o [1]
  .text               ro code  0x08045750      0x4  startup_stm32f417xx.o [1]
  .text               ro code  0x08045754      0x4  startup_stm32f417xx.o [1]
  .text               ro code  0x08045758      0x4  startup_stm32f417xx.o [1]
  .text               ro code  0x0804575c      0x4  startup_stm32f417xx.o [1]
  .text               ro code  0x08045760      0x4  startup_stm32f417xx.o [1]
  .text               ro code  0x08045764      0x4  startup_stm32f417xx.o [1]
  .text               ro code  0x08045768      0x4  startup_stm32f417xx.o [1]
  .text               ro code  0x0804576c      0x4  startup_stm32f417xx.o [1]
  .text               ro code  0x08045770      0x4  startup_stm32f417xx.o [1]
  .text               ro code  0x08045774      0x4  startup_stm32f417xx.o [1]
  .text               ro code  0x08045778      0x4  startup_stm32f417xx.o [1]
  .text               ro code  0x0804577c      0x4  startup_stm32f417xx.o [1]
  .text               ro code  0x08045780      0x4  startup_stm32f417xx.o [1]
  .text               ro code  0x08045784      0x4  startup_stm32f417xx.o [1]
  .text               ro code  0x08045788      0x4  startup_stm32f417xx.o [1]
  .text               ro code  0x0804578c      0x4  startup_stm32f417xx.o [1]
  .text               ro code  0x08045790      0x4  startup_stm32f417xx.o [1]
  .text               ro code  0x08045794      0x4  startup_stm32f417xx.o [1]
  .text               ro code  0x08045798      0x4  startup_stm32f417xx.o [1]
  .text               ro code  0x0804579c      0x4  startup_stm32f417xx.o [1]
  .text               ro code  0x080457a0      0x4  startup_stm32f417xx.o [1]
  .text               ro code  0x080457a4      0x4  startup_stm32f417xx.o [1]
  .text               ro code  0x080457a8      0x4  startup_stm32f417xx.o [1]
  .text               ro code  0x080457ac      0x4  startup_stm32f417xx.o [1]
  .text               ro code  0x080457b0      0x4  startup_stm32f417xx.o [1]
  .text               ro code  0x080457b4      0x4  startup_stm32f417xx.o [1]
  .text               ro code  0x080457b8      0x4  startup_stm32f417xx.o [1]
  .text               ro code  0x080457bc      0x4  startup_stm32f417xx.o [1]
  .text               ro code  0x080457c0      0x4  startup_stm32f417xx.o [1]
  .text               ro code  0x080457c4      0x4  startup_stm32f417xx.o [1]
  .text               ro code  0x080457c8      0x4  startup_stm32f417xx.o [1]
  .text               ro code  0x080457cc      0x4  startup_stm32f417xx.o [1]
  .text               ro code  0x080457d0      0x4  startup_stm32f417xx.o [1]
  .text               ro code  0x080457d4      0x4  startup_stm32f417xx.o [1]
  .text               ro code  0x080457d8      0x4  startup_stm32f417xx.o [1]
  .text               ro code  0x080457dc      0x4  startup_stm32f417xx.o [1]
  .text               ro code  0x080457e0      0x4  startup_stm32f417xx.o [1]
  .text               ro code  0x080457e4      0x4  startup_stm32f417xx.o [1]
  .text               ro code  0x080457e8      0x4  startup_stm32f417xx.o [1]
  .text               ro code  0x080457ec      0x4  startup_stm32f417xx.o [1]
  .text               ro code  0x080457f0      0x4  startup_stm32f417xx.o [1]
  .text               ro code  0x080457f4      0x4  startup_stm32f417xx.o [1]
  .text               ro code  0x080457f8      0x4  startup_stm32f417xx.o [1]
  .text               ro code  0x080457fc      0x4  startup_stm32f417xx.o [1]
  .text               ro code  0x08045800      0x4  startup_stm32f417xx.o [1]
  .text               ro code  0x08045804      0x4  startup_stm32f417xx.o [1]
  .text               ro code  0x08045808      0x4  startup_stm32f417xx.o [1]
  .rodata             const    0x0804580c      0x0  zero_init3.o [6]
  .rodata             const    0x0804580c      0x0  lz77_init.o [6]
  Initializer bytes   ro data  0x0804580c    0x213  <for P2 s0>
                             - 0x08045a1f  0x45897

"P2":                                      0x15b38
  P2 s0                        0x20000000    0x4b4  <Init block>
    .data             inited   0x20000000    0x100  modbus.o [1]
    .data             inited   0x20000100    0x100  modbus.o [1]
    __DLIB_PERTHREAD  inited   0x20000200     0x8c  rand.o [3]
    .data             inited   0x2000028c     0x64  main.o [1]
    .data             inited   0x200002f0     0x64  main.o [1]
    .data             inited   0x20000354     0x44  usbd_cdc.o [1]
    .data             inited   0x20000398     0x44  usbd_cdc.o [1]
    .data             inited   0x200003dc     0x44  usbd_cdc.o [1]
    .data             inited   0x20000420     0x38  usbd_cdc.o [1]
    .data             inited   0x20000458     0x1c  usbd_desc.o [1]
    .data             inited   0x20000474     0x14  usbd_desc.o [1]
    .data             inited   0x20000488     0x10  usbd_cdc_if.o [1]
    .data             inited   0x20000498      0xc  usbd_cdc.o [1]
    .data             inited   0x200004a4      0x4  system_stm32f4xx.o [1]
    .data             inited   0x200004a8      0x4  usbd_desc.o [1]
    __DLIB_PERTHREAD  inited   0x200004ac      0x4  errno.o [3]
    .data             inited   0x200004b0      0x2  pwm.o [1]
    .data             inited   0x200004b2      0x1  archive.o [1]
    .data             inited   0x200004b3      0x1  archive.o [1]
  .bss                zero     0x200004b4   0x3000  utils.o [1]
  .bss                zero     0x200034b4   0x13ec  main.o [1]
  .bss                zero     0x200048a0   0x13ec  main.o [1]
  .bss                zero     0x20005c8c   0x13ec  main.o [1]
  .bss                zero     0x20007078   0x1388  fppp3.o [1]
  .bss                zero     0x20008400   0x1388  fppp3.o [1]
  .bss                zero     0x20009788    0xc80  dynaGram.o [1]
  .bss                zero     0x2000a408    0x960  dynaGram.o [1]
  .bss                zero     0x2000ad68    0x800  main.o [1]
  .bss                zero     0x2000b568    0x800  main.o [1]
  .bss                zero     0x2000bd68    0x800  main.o [1]
  .bss                zero     0x2000c568    0x800  read_write.o [1]
  .bss                zero     0x2000cd68    0x800  read_write.o [1]
  .bss                zero     0x2000d568    0x800  usbd_cdc_if.o [1]
  .bss                zero     0x2000dd68    0x800  usbd_cdc_if.o [1]
  .bss                zero     0x2000e568    0x7e4  main.o [1]
  .bss                zero     0x2000ed4c    0x7e4  main.o [1]
  .bss                zero     0x2000f530    0x44c  base1.o [1]
  .bss                zero     0x2000f97c    0x3b4  usbd_conf.o [1]
  .bss                zero     0x2000fd30    0x358  dynaGram.o [1]
  .bss                zero     0x20010088    0x330  dynaGram.o [1]
  .bss                zero     0x200103b8    0x224  usb_device.o [1]
  .bss                zero     0x200105dc    0x200  usbd_desc.o [1]
  .bss                zero     0x200107dc    0x1d8  dlmalloc.o [3]
  .bss                zero     0x200109b4    0x194  main.o [1]
  .bss                zero     0x20010b48    0x18c  archive.o [1]
  .bss                zero     0x20010cd4    0x184  pwm.o [1]
  .bss                zero     0x20010e58    0x16c  pwm.o [1]
  .bss                zero     0x20010fc4    0x16c  pwm.o [1]
  .bss                zero     0x20011130    0x150  base1.o [1]
  .bss                zero     0x20011280    0x150  base1.o [1]
  .bss                zero     0x200113d0    0x130  pwm.o [1]
  .bss                zero     0x20011500    0x130  pwm.o [1]
  .bss                zero     0x20011630     0xf0  fram1.o [1]
  .bss                zero     0x20011720     0xc8  main.o [1]
  .bss                zero     0x200117e8     0xb0  dynaGram.o [1]
  .bss                zero     0x20011898     0x9c  pwm.o [1]
  .bss                zero     0x20011934     0x9c  pwm.o [1]
  .bss                zero     0x200119d0     0x98  utils.o [1]
  .bss                zero     0x20011a68     0x7c  alarms.o [1]
  .bss                zero     0x20011ae8     0x90  pwm.o [1]
  .bss                zero     0x20011b78     0x7c  alarms.o [1]
  .bss                zero     0x20011bf4     0x6c  main.o [1]
  .bss                zero     0x20011c60     0x78  pwm.o [1]
  .bss                zero     0x20011cd8     0x78  pwm.o [1]
  .bss                zero     0x20011d50     0x70  utils.o [1]
  .bss                zero     0x20011dc0     0x5c  alarms.o [1]
  .bss                zero     0x20011e1c     0x5c  alarms.o [1]
  .bss                zero     0x20011e78     0x5c  main.o [1]
  .bss                zero     0x20011ed4     0x58  prepare_sim800.o [1]
  .bss                zero     0x20011f2c     0x50  alarms.o [1]
  .bss                zero     0x20011f7c     0x50  archive.o [1]
  .bss                zero     0x20011fcc     0x50  main.o [1]
  .bss                zero     0x2001201c     0x50  main.o [1]
  .bss                zero     0x2001206c     0x50  main.o [1]
  .bss                zero     0x200120bc     0x50  pwm.o [1]
  .bss                zero     0x2001210c     0x50  pwm.o [1]
  .bss                zero     0x2001215c     0x48  DS18B20.o [1]
  .bss                zero     0x200121a4     0x48  utils.o [1]
  .bss                zero     0x200121ec     0x44  at_com4.o [1]
  .bss                zero     0x20012230     0x44  main.o [1]
  .bss                zero     0x20012274     0x44  main.o [1]
  .bss                zero     0x200122b8     0x44  main.o [1]
  .bss                zero     0x200122fc     0x40  main.o [1]
  .bss                zero     0x2001233c     0x40  main.o [1]
  .bss                zero     0x2001237c     0x40  main.o [1]
  .bss                zero     0x200123bc     0x40  main.o [1]
  .bss                zero     0x200123fc     0x3c  fram1.o [1]
  .bss                zero     0x20012438     0x3c  fram1.o [1]
  .bss                zero     0x20012474     0x3c  main.o [1]
  .bss                zero     0x200124b0     0x3c  main.o [1]
  .bss                zero     0x200124ec     0x3c  main.o [1]
  .bss                zero     0x20012528     0x3c  main.o [1]
  .bss                zero     0x20012564     0x3c  main.o [1]
  .bss                zero     0x200125a0     0x3c  main.o [1]
  .bss                zero     0x200125dc     0x28  at_com4.o [1]
  .bss                zero     0x20012604     0x28  utils.o [1]
  .bss                zero     0x2001262c     0x28  utils.o [1]
  .bss                zero     0x20012654     0x20  base1.o [1]
  .bss                zero     0x20012674     0x20  sram_rtc.o [1]
  .bss                zero     0x20012694     0x1c  fppp3.o [1]
  .bss                zero     0x200126b0     0x1c  fppp3.o [1]
  .bss                zero     0x200126cc     0x1c  fppp3.o [1]
  .bss                zero     0x200126e8     0x1c  fppp3.o [1]
  .bss                zero     0x20012704     0x1c  fppp3.o [1]
  .bss                zero     0x20012720     0x1c  fppp3.o [1]
  .bss                zero     0x2001273c     0x1c  fppp3.o [1]
  .bss                zero     0x20012758     0x18  base1.o [1]
  .bss                zero     0x20012770     0x18  base1.o [1]
  .bss                zero     0x20012788     0x18  sram_rtc.o [1]
  .bss                zero     0x200127a0     0x18  dlmalloc.o [3]
  .bss                zero     0x200127b8     0x14  base1.o [1]
  .bss                zero     0x200127cc     0x14  base1.o [1]
  .bss                zero     0x200127e0     0x14  main.o [1]
  .bss                zero     0x200127f4     0x14  main.o [1]
  .bss                zero     0x20012808     0x14  main.o [1]
  .bss                zero     0x2001281c     0x14  sram_rtc.o [1]
  .bss                zero     0x20012830     0x10  archive.o [1]
  .bss                zero     0x20012840     0x10  fppp3.o [1]
  .bss                zero     0x20012850     0x10  fppp3.o [1]
  .bss                zero     0x20012860     0x10  fram1.o [1]
  .bss                zero     0x20012870     0x10  fram1.o [1]
  .bss                zero     0x20012880     0x10  fram1.o [1]
  .bss                zero     0x20012890     0x10  main.o [1]
  .bss                zero     0x200128a0     0x10  utils.o [1]
  .bss                zero     0x200128b0      0xc  fppp3.o [1]
  .bss                zero     0x200128bc      0xc  fram1.o [1]
  .bss                zero     0x200128c8      0xc  fram1.o [1]
  .bss                zero     0x200128d4      0xc  ldterm_stm.o [1]
  .bss                zero     0x200128e0      0xc  main.o [1]
  .bss                zero     0x200128ec      0xc  main.o [1]
  .bss                zero     0x200128f8      0xc  utils.o [1]
  .bss                zero     0x20012904      0x8  alarms.o [1]
  .bss                zero     0x2001290c      0x8  alarms.o [1]
  .bss                zero     0x20012914      0x8  fram1.o [1]
  .bss                zero     0x2001291c      0x8  fram1.o [1]
  .bss                zero     0x20012924      0x8  fram1.o [1]
  .bss                zero     0x2001292c      0x4  alarms.o [1]
  .bss                zero     0x20012930      0x8  main.o [1]
  .bss                zero     0x20012938      0x8  sram_rtc.o [1]
  .bss                zero     0x20012940      0x8  utils.o [1]
  .bss                zero     0x20012948      0x4  alarms.o [1]
  .bss                zero     0x2001294c      0x4  at_com4.o [1]
  .bss                zero     0x20012950      0x4  at_com4.o [1]
  .bss                zero     0x20012954      0x4  base1.o [1]
  .bss                zero     0x20012958      0x4  base1.o [1]
  .bss                zero     0x2001295c      0x4  base1.o [1]
  .bss                zero     0x20012960      0x4  base1.o [1]
  .bss                zero     0x20012964      0x4  base1.o [1]
  .bss                zero     0x20012968      0x4  base1.o [1]
  .bss                zero     0x2001296c      0x4  base1.o [1]
  .bss                zero     0x20012970      0x4  base1.o [1]
  .bss                zero     0x20012974      0x4  base1.o [1]
  .bss                zero     0x20012978      0x4  base1.o [1]
  .bss                zero     0x2001297c      0x4  base1.o [1]
  .bss                zero     0x20012980      0x4  base1.o [1]
  .bss                zero     0x20012984      0x4  base1.o [1]
  .bss                zero     0x20012988      0x4  base1.o [1]
  .bss                zero     0x2001298c      0x4  base1.o [1]
  .bss                zero     0x20012990      0x4  base1.o [1]
  .bss                zero     0x20012994      0x4  bvi.o [1]
  .bss                zero     0x20012998      0x4  DS18B20.o [1]
  .bss                zero     0x2001299c      0x4  dynaGram.o [1]
  .bss                zero     0x200129a0      0x4  dynaGram.o [1]
  .bss                zero     0x200129a4      0x4  dynaGram.o [1]
  .bss                zero     0x200129a8      0x4  dynaGram.o [1]
  .bss                zero     0x200129ac      0x4  dynaGram.o [1]
  .bss                zero     0x200129b0      0x4  fppp3.o [1]
  .bss                zero     0x200129b4      0x4  fppp3.o [1]
  .bss                zero     0x200129b8      0x4  fppp3.o [1]
  .bss                zero     0x200129bc      0x4  fppp3.o [1]
  .bss                zero     0x200129c0      0x4  fppp3.o [1]
  .bss                zero     0x200129c4      0x4  fppp3.o [1]
  .bss                zero     0x200129c8      0x4  fppp3.o [1]
  .bss                zero     0x200129cc      0x4  fppp3.o [1]
  .bss                zero     0x200129d0      0x4  fppp3.o [1]
  .bss                zero     0x200129d4      0x4  fppp3.o [1]
  .bss                zero     0x200129d8      0x4  fppp3.o [1]
  .bss                zero     0x200129dc      0x4  fppp3.o [1]
  .bss                zero     0x200129e0      0x4  fppp3.o [1]
  .bss                zero     0x200129e4      0x4  fppp3.o [1]
  .bss                zero     0x200129e8      0x4  fram1.o [1]
  .bss                zero     0x200129ec      0x4  fram1.o [1]
  .bss                zero     0x200129f0      0x4  interr4.o [1]
  .bss                zero     0x200129f4      0x4  main.o [1]
  .bss                zero     0x200129f8      0x4  main.o [1]
  .bss                zero     0x200129fc      0x4  main.o [1]
  .bss                zero     0x20012a00      0x4  main.o [1]
  .bss                zero     0x20012a04      0x4  main.o [1]
  .bss                zero     0x20012a08      0x4  main.o [1]
  .bss                zero     0x20012a0c      0x4  main.o [1]
  .bss                zero     0x20012a10      0x4  main.o [1]
  .bss                zero     0x20012a14      0x4  main.o [1]
  .bss                zero     0x20012a18      0x4  main.o [1]
  .bss                zero     0x20012a1c      0x4  main.o [1]
  .bss                zero     0x20012a20      0x4  main.o [1]
  .bss                zero     0x20012a24      0x4  main.o [1]
  .bss                zero     0x20012a28      0x4  main.o [1]
  .bss                zero     0x20012a2c      0x4  main.o [1]
  .bss                zero     0x20012a30      0x4  main.o [1]
  .bss                zero     0x20012a34      0x4  main.o [1]
  .bss                zero     0x20012a38      0x4  scenario_softAP.o [1]
  .bss                zero     0x20012a3c      0x4  sram_rtc.o [1]
  .bss                zero     0x20012a40      0x4  sram_rtc.o [1]
  .bss                zero     0x20012a44      0x4  sram_rtc.o [1]
  .bss                zero     0x20012a48      0x4  sram_rtc.o [1]
  .bss                zero     0x20012a4c      0x4  stm32f4xx_hal.o [1]
  .bss                zero     0x20012a50      0x4  utils.o [1]
  .bss                zero     0x20012a54      0x4  utils.o [1]
  .bss                zero     0x20012a58      0x4  utils.o [1]
  .bss                zero     0x20012a5c      0x4  utils.o [1]
  .bss                zero     0x20012a60      0x4  utils.o [1]
  .bss                zero     0x20012a64      0x4  utils.o [1]
  .bss                zero     0x20012a68      0x4  utils.o [1]
  .bss                zero     0x20012a6c      0x4  utils.o [1]
  .bss                zero     0x20012a70      0x4  utils.o [1]
  .bss                zero     0x20012a74      0x4  xgetmemchunk.o [3]
  .bss                zero     0x20012a78      0x2  base1.o [1]
  .bss                zero     0x20012a7a      0x2  base1.o [1]
  .bss                zero     0x20012a7c      0x2  base1.o [1]
  .bss                zero     0x20012a7e      0x2  base1.o [1]
  .bss                zero     0x20012a80      0x2  base1.o [1]
  .bss                zero     0x20012a82      0x2  base1.o [1]
  .bss                zero     0x20012a84      0x2  base1.o [1]
  .bss                zero     0x20012a86      0x2  base1.o [1]
  .bss                zero     0x20012a88      0x2  fppp3.o [1]
  .bss                zero     0x20012a8a      0x2  fppp3.o [1]
  .bss                zero     0x20012a8c      0x2  fppp3.o [1]
  .bss                zero     0x20012a8e      0x2  fppp3.o [1]
  .bss                zero     0x20012a90      0x2  fppp3.o [1]
  .bss                zero     0x20012a92      0x2  fppp3.o [1]
  .bss                zero     0x20012a94      0x2  ledmd.o [1]
  .bss                zero     0x20012a96      0x2  main.o [1]
  .bss                zero     0x20012a98      0x2  main.o [1]
  .bss                zero     0x20012a9a      0x2  main.o [1]
  .bss                zero     0x20012a9c      0x2  main.o [1]
  .bss                zero     0x20012a9e      0x2  main.o [1]
  .bss                zero     0x20012aa0      0x2  main.o [1]
  .bss                zero     0x20012aa2      0x2  main.o [1]
  .bss                zero     0x20012aa4      0x2  main.o [1]
  .bss                zero     0x20012aa6      0x2  main.o [1]
  .bss                zero     0x20012aa8      0x2  main.o [1]
  .bss                zero     0x20012aaa      0x2  main.o [1]
  .bss                zero     0x20012aac      0x2  main.o [1]
  .bss                zero     0x20012aae      0x2  main.o [1]
  .bss                zero     0x20012ab0      0x2  main.o [1]
  .bss                zero     0x20012ab2      0x2  modbus.o [1]
  .bss                zero     0x20012ab4      0x2  modbus.o [1]
  .bss                zero     0x20012ab6      0x2  pwm.o [1]
  .bss                zero     0x20012ab8      0x2  pwm.o [1]
  .bss                zero     0x20012aba      0x2  spvisor.o [1]
  .bss                zero     0x20012abc      0x1  alarms.o [1]
  .bss                zero     0x20012abd      0x1  archive.o [1]
  .bss                zero     0x20012abe      0x1  at_com4.o [1]
  .bss                zero     0x20012abf      0x1  at_com4.o [1]
  .bss                zero     0x20012ac0      0x1  at_com4.o [1]
  .bss                zero     0x20012ac1      0x1  base1.o [1]
  .bss                zero     0x20012ac2      0x1  base1.o [1]
  .bss                zero     0x20012ac3      0x1  base1.o [1]
  .bss                zero     0x20012ac4      0x1  base1.o [1]
  .bss                zero     0x20012ac5      0x1  base1.o [1]
  .bss                zero     0x20012ac6      0x1  base1.o [1]
  .bss                zero     0x20012ac7      0x1  base1.o [1]
  .bss                zero     0x20012ac8      0x1  base1.o [1]
  .bss                zero     0x20012ac9      0x1  base1.o [1]
  .bss                zero     0x20012aca      0x1  base1.o [1]
  .bss                zero     0x20012acb      0x1  base1.o [1]
  .bss                zero     0x20012acc      0x1  bvi.o [1]
  .bss                zero     0x20012acd      0x1  bvi.o [1]
  .bss                zero     0x20012ace      0x1  bvi.o [1]
  .bss                zero     0x20012acf      0x1  DS18B20.o [1]
  .bss                zero     0x20012ad0      0x1  DS18B20.o [1]
  .bss                zero     0x20012ad1      0x1  DS18B20.o [1]
  .bss                zero     0x20012ad2      0x1  fppp3.o [1]
  .bss                zero     0x20012ad3      0x1  fppp3.o [1]
  .bss                zero     0x20012ad4      0x1  fppp3.o [1]
  .bss                zero     0x20012ad5      0x1  fppp3.o [1]
  .bss                zero     0x20012ad6      0x1  fppp3.o [1]
  .bss                zero     0x20012ad7      0x1  fppp3.o [1]
  .bss                zero     0x20012ad8      0x1  fppp3.o [1]
  .bss                zero     0x20012ad9      0x1  fppp3.o [1]
  .bss                zero     0x20012ada      0x1  fppp3.o [1]
  .bss                zero     0x20012adb      0x1  fppp3.o [1]
  .bss                zero     0x20012adc      0x1  fppp3.o [1]
  .bss                zero     0x20012add      0x1  fppp3.o [1]
  .bss                zero     0x20012ade      0x1  fppp3.o [1]
  .bss                zero     0x20012adf      0x1  fppp3.o [1]
  .bss                zero     0x20012ae0      0x1  fppp3.o [1]
  .bss                zero     0x20012ae1      0x1  fppp3.o [1]
  .bss                zero     0x20012ae2      0x1  fppp3.o [1]
  .bss                zero     0x20012ae3      0x1  fppp3.o [1]
  .bss                zero     0x20012ae4      0x1  fppp3.o [1]
  .bss                zero     0x20012ae5      0x1  fppp3.o [1]
  .bss                zero     0x20012ae6      0x1  fppp3.o [1]
  .bss                zero     0x20012ae7      0x1  fppp3.o [1]
  .bss                zero     0x20012ae8      0x1  fppp3.o [1]
  .bss                zero     0x20012ae9      0x1  fppp3.o [1]
  .bss                zero     0x20012aea      0x1  fppp3.o [1]
  .bss                zero     0x20012aeb      0x1  fppp3.o [1]
  .bss                zero     0x20012aec      0x1  fppp3.o [1]
  .bss                zero     0x20012aed      0x1  fppp3.o [1]
  .bss                zero     0x20012aee      0x1  fppp3.o [1]
  .bss                zero     0x20012aef      0x1  fppp3.o [1]
  .bss                zero     0x20012af0      0x1  fppp3.o [1]
  .bss                zero     0x20012af1      0x1  fppp3.o [1]
  .bss                zero     0x20012af2      0x1  fppp3.o [1]
  .bss                zero     0x20012af3      0x1  fppp3.o [1]
  .bss                zero     0x20012af4      0x1  fppp3.o [1]
  .bss                zero     0x20012af5      0x1  fppp3.o [1]
  .bss                zero     0x20012af6      0x1  fppp3.o [1]
  .bss                zero     0x20012af7      0x1  fppp3.o [1]
  .bss                zero     0x20012af8      0x1  fppp3.o [1]
  .bss                zero     0x20012af9      0x1  fppp3.o [1]
  .bss                zero     0x20012afa      0x1  fppp3.o [1]
  .bss                zero     0x20012afb      0x1  interr4.o [1]
  .bss                zero     0x20012afc      0x1  interr4.o [1]
  .bss                zero     0x20012afd      0x1  interr4.o [1]
  .bss                zero     0x20012afe      0x1  interr4.o [1]
  .bss                zero     0x20012aff      0x1  interr4.o [1]
  .bss                zero     0x20012b00      0x1  ledmd.o [1]
  .bss                zero     0x20012b01      0x1  logs.o [1]
  .bss                zero     0x20012b02      0x1  main.o [1]
  .bss                zero     0x20012b03      0x1  main.o [1]
  .bss                zero     0x20012b04      0x1  main.o [1]
  .bss                zero     0x20012b05      0x1  main.o [1]
  .bss                zero     0x20012b06      0x1  main.o [1]
  .bss                zero     0x20012b07      0x1  main.o [1]
  .bss                zero     0x20012b08      0x1  main.o [1]
  .bss                zero     0x20012b09      0x1  main.o [1]
  .bss                zero     0x20012b0a      0x1  main.o [1]
  .bss                zero     0x20012b0b      0x1  main.o [1]
  .bss                zero     0x20012b0c      0x1  main.o [1]
  .bss                zero     0x20012b0d      0x1  main.o [1]
  .bss                zero     0x20012b0e      0x1  main.o [1]
  .bss                zero     0x20012b0f      0x1  main.o [1]
  .bss                zero     0x20012b10      0x1  main.o [1]
  .bss                zero     0x20012b11      0x1  main.o [1]
  .bss                zero     0x20012b12      0x1  main.o [1]
  .bss                zero     0x20012b13      0x1  main.o [1]
  .bss                zero     0x20012b14      0x1  main.o [1]
  .bss                zero     0x20012b15      0x1  main.o [1]
  .bss                zero     0x20012b16      0x1  main.o [1]
  .bss                zero     0x20012b17      0x1  pwm.o [1]
  .bss                zero     0x20012b18      0x1  pwm.o [1]
  .bss                zero     0x20012b19      0x1  pwm.o [1]
  .bss                zero     0x20012b1a      0x1  pwm.o [1]
  .bss                zero     0x20012b1b      0x1  scenario_softAP.o [1]
  .bss                zero     0x20012b1c      0x1  scenario_softAP.o [1]
  .bss                zero     0x20012b1d      0x1  scenario_softAP.o [1]
  .bss                zero     0x20012b1e      0x1  scenario_softAP.o [1]
  .bss                zero     0x20012b1f      0x1  usbd_cdc.o [1]
  .bss                zero     0x20012b20      0x1  usbd_ctlreq.o [1]
  .bss                zero     0x20012b21      0x1  utils.o [1]
  .bss                zero     0x20012b22      0x1  utils.o [1]
  .bss                zero     0x20012b23      0x1  utils.o [1]
  .bss                zero     0x20012b24      0x1  utils.o [1]
  .bss                zero     0x20012b25      0x1  utils.o [1]
  .bss                zero     0x20012b26      0x1  utils.o [1]
  .bss                zero     0x20012b27      0x1  utils.o [1]
  .bss                zero     0x20012b28      0x1  utils.o [1]
  .bss                zero     0x20012b29      0x1  utils.o [1]
  .bss                zero     0x20012b2a      0x1  utils.o [1]
  .bss                zero     0x20012b2b      0x1  utils.o [1]
  .bss                zero     0x20012b2c      0x1  utils.o [1]
  .noinit             uninit   0x20012b30      0x1  base1.o [1]
  CSTACK                       0x20012b38   0x2000  <Block>
    CSTACK            uninit   0x20012b38   0x2000  <Block tail>
  HEAP                         0x20014b38   0x1000  <Block>
    HEAP              uninit   0x20014b38   0x1000  <Block tail>
                             - 0x20015b38  0x15b38


*******************************************************************************
*** INIT TABLE
***

          Address     Size
          -------     ----
Zero (__iar_zero_init3)
    1 destination range, total size 0x12679:
          0x200004b4  0x12679

Copy/lz77 (__iar_lz77_init3)
    1 source range, total size 0x213 (44% of destination):
          0x0804580c    0x213
    1 destination range, total size 0x4b4:
          0x20000000    0x4b4



*******************************************************************************
*** MODULE SUMMARY
***

    Module                  ro code  ro data  rw data
    ------                  -------  -------  -------
F:\’Ņ„“Ó\UD\CHREP_V3_2\EWARM\vectorPWM Configuration\Obj: [1]
    DS18B20.o                 2 120                79
    InitParam.o              12 440   61 432
    alarms.o                  4 732               537
    archive.o                 4 276        1      495
    at_com4.o                 5 152      304      119
    base1.o                  16 050      716    1 984
    bvi.o                       620                 7
    coder.o                     468       32
    dynaGram.o                4 612             7 468
    fppp3.o                  14 960      616   10 349
    fram.o                    1 432
    fram1.o                   1 384               464
    init_pin_sim.o              100
    interr4.o                 3 028                 9
    ldterm_stm.o                340       64       12
    ledmd.o                     196                 3
    logs.o                      320                 1
    main.o                   25 302      128   27 773
    modbus.o                 15 120      225      516
    pins_stm.o                  224
    prepare_sim800.o            628                88
    pwm.o                    16 672        1    2 590
    read_write.o                396             4 096
    scenario_softAP.o         3 764      176        8
    spvisor.o                    48       12        2
    sram_rtc.o                5 696       48      100
    startup_stm32f417xx.o       708
    stm32f4xx_hal.o             136                 4
    stm32f4xx_hal_adc.o       1 436
    stm32f4xx_hal_adc_ex.o      400
    stm32f4xx_hal_cortex.o      396
    stm32f4xx_hal_dac.o         322
    stm32f4xx_hal_dma.o      14 682
    stm32f4xx_hal_gpio.o        976
    stm32f4xx_hal_iwdg.o        212
    stm32f4xx_hal_msp.o       1 484
    stm32f4xx_hal_pcd.o       2 536
    stm32f4xx_hal_pcd_ex.o      110
    stm32f4xx_hal_pwr.o          24
    stm32f4xx_hal_pwr_ex.o       64
    stm32f4xx_hal_rcc.o       1 888       16
    stm32f4xx_hal_rcc_ex.o      372
    stm32f4xx_hal_rtc.o       1 060
    stm32f4xx_hal_rtc_ex.o       38
    stm32f4xx_hal_tim.o       2 812
    stm32f4xx_hal_tim_ex.o      166
    stm32f4xx_hal_uart.o      2 692
    stm32f4xx_it.o              216
    stm32f4xx_ll_usb.o        3 388
    system_stm32f4xx.o          108        2        4
    usb_device.o                 52               548
    usbd_cdc.o                  756      120      273
    usbd_cdc_if.o               212        7    4 112
    usbd_conf.o               1 326       40      948
    usbd_core.o                 838
    usbd_ctlreq.o             1 630                 1
    usbd_desc.o                 224      111      564
    usbd_ioreq.o                188
    utils.o                  18 740    3 374   12 788
    -------------------------------------------------
    Total:                  200 272   67 425   75 942

command line: [2]
    -------------------------------------------------
    Total:

dl7M_tln.a: [3]
    abort.o                       6
    atoi.o                        8
    atol.o                        8
    div.o                        14
    dlmalloc.o                5 376               496
    errno.o                      12        2        4
    exit.o                        4
    low_level_init.o              4
    rand.o                      224       62      140
    sprintf.o                    52
    strcat.o                     28
    xgetmemchunk.o               44                 4
    xprintflarge_nomb.o       3 074
    xsprout.o                    10
    xstoflt.o                   436
    xstopfx.o                   304
    xstoul.o                    412
    xstoxflt.o                  512
    xtls.o                        2
    -------------------------------------------------
    Total:                   10 530       64      644

iar_cortexM4lf_math.a: [4]
    arm_common_tables.o                1 028
    arm_cos_q15.o                68
    arm_rms_q15.o                94
    arm_sin_q15.o                52
    arm_sqrt_q15.o              236
    -------------------------------------------------
    Total:                      450    1 028

m7M_tlv.a: [5]
    DblAdd.o                    232
    DblCmpEq.o                   32
    DblCmpGe.o                   46
    DblCmpLe.o                   46
    DblDiv.o                    582
    DblMul.o                    418
    DblSub.o                    384
    DblToFlt.o                  144
    DblToI32.o                   44
    FltToDbl.o                   78
    I32ToDbl.o                   48
    atanf.o                      80
    atof.o                       16
    fpinit_M.o                   26
    sqrt.o                      256
    sqrtf.o                      28
    xatanf.o                    164
    xdnorm.o                     66
    xdscale.o                   276
    xdtento.o                   512
    xdunscal.o                   86
    xstod.o                     360
    -------------------------------------------------
    Total:                    3 924

rt7M_tl.a: [6]
    ABImemcpy_unaligned.o       118
    ABImemset.o                 102
    I64DivMod.o                 306
    I64DivZer.o                   2
    cexit.o                      10
    cmain.o                      26
    cstartup_M.o                 12
    data_init.o                  40
    iarEdom.o                    12
    lz77_init.o                 450
    memchr.o                     88
    strchr.o                     22
    strcmp_unaligned.o           66
    strcpy_unaligned.o           68
    strlen.o                     54
    zero_init3.o                 34
    -------------------------------------------------
    Total:                    1 410

shb_l.a: [7]
    exit.o                       20
    -------------------------------------------------
    Total:                       20

    Gaps                         42        6        4
    Linker created                        44   12 288
-----------------------------------------------------
    Grand Total:            216 648   68 567   88 878


*******************************************************************************
*** ENTRY LIST
***

Entry                      Address    Size  Type      Object
-----                      -------    ----  ----      ------
?main                   0x08044f55          Code  Gb  cmain.o [6]
ADC_IRQHandler          0x08042989     0xa  Code  Gb  stm32f4xx_it.o [1]
ADC_Init                0x0801dfab   0x166  Code  Lc  stm32f4xx_hal_adc.o [1]
ADC_MultiModeDMAConvCplt
                        0x0801e265    0x24  Code  Lc  stm32f4xx_hal_adc_ex.o [1]
ADC_MultiModeDMAError   0x0801e299    0x1c  Code  Lc  stm32f4xx_hal_adc_ex.o [1]
ADC_MultiModeDMAHalfConvCplt
                        0x0801e289     0xe  Code  Lc  stm32f4xx_hal_adc_ex.o [1]
APBAHBPrescTable        0x08045284    0x10  Data  Gb  stm32f4xx_hal_rcc.o [1]
AT_CIPSEND_1            0x080455d8     0xc  Data  Gb  utils.o [1]
AT_CIPSEND_2            0x08016792     0x2  Data  Gb  utils.o [1]
AT_CIPSEND_3            0x080456dc     0x4  Data  Gb  utils.o [1]
AVAR_1                  0x080447bc    0x20  Data  Gb  InitParam.o [1]
AVAR_10                 0x08044ad8    0x1c  Data  Gb  InitParam.o [1]
AVAR_101                0x08044d08    0x1c  Data  Gb  InitParam.o [1]
AVAR_101_4              0x08044d24    0x1c  Data  Gb  InitParam.o [1]
AVAR_101_6              0x0804550c     0xc  Data  Gb  InitParam.o [1]
AVAR_102                0x08044b48    0x1c  Data  Gb  InitParam.o [1]
AVAR_102_4              0x08044b64    0x1c  Data  Gb  InitParam.o [1]
AVAR_102_6              0x080454ac     0xc  Data  Gb  InitParam.o [1]
AVAR_103                0x08044b80    0x1c  Data  Gb  InitParam.o [1]
AVAR_103_4              0x08044b9c    0x1c  Data  Gb  InitParam.o [1]
AVAR_103_6              0x080454b8     0xc  Data  Gb  InitParam.o [1]
AVAR_104                0x08044bb8    0x1c  Data  Gb  InitParam.o [1]
AVAR_104_4              0x08044bd4    0x1c  Data  Gb  InitParam.o [1]
AVAR_104_6              0x080454c4     0xc  Data  Gb  InitParam.o [1]
AVAR_105                0x08044bf0    0x1c  Data  Gb  InitParam.o [1]
AVAR_105_4              0x08044c0c    0x1c  Data  Gb  InitParam.o [1]
AVAR_105_6              0x080454d0     0xc  Data  Gb  InitParam.o [1]
AVAR_106                0x08044c28    0x1c  Data  Gb  InitParam.o [1]
AVAR_106_4              0x08044c44    0x1c  Data  Gb  InitParam.o [1]
AVAR_106_6              0x080454dc     0xc  Data  Gb  InitParam.o [1]
AVAR_107                0x08044c60    0x1c  Data  Gb  InitParam.o [1]
AVAR_107_4              0x08044c7c    0x1c  Data  Gb  InitParam.o [1]
AVAR_107_6              0x080454e8     0xc  Data  Gb  InitParam.o [1]
AVAR_108                0x08044c98    0x1c  Data  Gb  InitParam.o [1]
AVAR_108_4              0x08044cb4    0x1c  Data  Gb  InitParam.o [1]
AVAR_108_6              0x080454f4     0xc  Data  Gb  InitParam.o [1]
AVAR_109                0x08044cd0    0x1c  Data  Gb  InitParam.o [1]
AVAR_109_4              0x08044cec    0x1c  Data  Gb  InitParam.o [1]
AVAR_109_6              0x08045500     0xc  Data  Gb  InitParam.o [1]
AVAR_10_4               0x08043d60    0x30  Data  Gb  InitParam.o [1]
AVAR_10_5               0x08043d90    0x30  Data  Gb  InitParam.o [1]
AVAR_10_6               0x08043dc0    0x30  Data  Gb  InitParam.o [1]
AVAR_10_7               0x080435f0    0x38  Data  Gb  InitParam.o [1]
AVAR_10_8               0x080438a4    0x34  Data  Gb  InitParam.o [1]
AVAR_10_9               0x080438d8    0x34  Data  Gb  InitParam.o [1]
AVAR_11                 0x080432d4    0x3c  Data  Gb  InitParam.o [1]
AVAR_110                0x08044f9c    0x18  Data  Gb  InitParam.o [1]
AVAR_110_4              0x0804485c    0x20  Data  Gb  InitParam.o [1]
AVAR_110_6              0x08043f2c    0x2c  Data  Gb  InitParam.o [1]
AVAR_111                0x0804487c    0x20  Data  Gb  InitParam.o [1]
AVAR_111_4              0x08044d40    0x1c  Data  Gb  InitParam.o [1]
AVAR_111_6              0x08045518     0xc  Data  Gb  InitParam.o [1]
AVAR_112                0x0804489c    0x20  Data  Gb  InitParam.o [1]
AVAR_112_4              0x08044d5c    0x1c  Data  Gb  InitParam.o [1]
AVAR_112_6              0x08045524     0xc  Data  Gb  InitParam.o [1]
AVAR_113                0x080448bc    0x20  Data  Gb  InitParam.o [1]
AVAR_113_4              0x08044d78    0x1c  Data  Gb  InitParam.o [1]
AVAR_113_6              0x08045530     0xc  Data  Gb  InitParam.o [1]
AVAR_114                0x080448dc    0x20  Data  Gb  InitParam.o [1]
AVAR_114_4              0x08044d94    0x1c  Data  Gb  InitParam.o [1]
AVAR_114_6              0x0804553c     0xc  Data  Gb  InitParam.o [1]
AVAR_115                0x080448fc    0x20  Data  Gb  InitParam.o [1]
AVAR_115_4              0x08044dcc    0x1c  Data  Gb  InitParam.o [1]
AVAR_115_6              0x08045548     0xc  Data  Gb  InitParam.o [1]
AVAR_116                0x08044fb4    0x18  Data  Gb  InitParam.o [1]
AVAR_116_4              0x08044db0    0x1c  Data  Gb  InitParam.o [1]
AVAR_116_6              0x080446dc    0x24  Data  Gb  InitParam.o [1]
AVAR_11_5               0x08043e7c    0x2c  Data  Gb  InitParam.o [1]
AVAR_11_6               0x08044574    0x24  Data  Gb  InitParam.o [1]
AVAR_11_7               0x08043628    0x38  Data  Gb  InitParam.o [1]
AVAR_11_8               0x0804390c    0x34  Data  Gb  InitParam.o [1]
AVAR_11_9               0x08044170    0x28  Data  Gb  InitParam.o [1]
AVAR_12                 0x0804508c    0x14  Data  Gb  InitParam.o [1]
AVAR_13                 0x080450a0    0x14  Data  Gb  InitParam.o [1]
AVAR_14                 0x08045214    0x10  Data  Gb  InitParam.o [1]
AVAR_14_4               0x08043ea8    0x2c  Data  Gb  InitParam.o [1]
AVAR_15                 0x080450b4    0x14  Data  Gb  InitParam.o [1]
AVAR_15_4               0x08043214    0x40  Data  Gb  InitParam.o [1]
AVAR_16                 0x08045224    0x10  Data  Gb  InitParam.o [1]
AVAR_16_4               0x08044198    0x28  Data  Gb  InitParam.o [1]
AVAR_16_6               0x08043940    0x34  Data  Gb  InitParam.o [1]
AVAR_16_8               0x08043974    0x34  Data  Gb  InitParam.o [1]
AVAR_17                 0x0804483c    0x20  Data  Gb  InitParam.o [1]
AVAR_17_4               0x08043ed4    0x2c  Data  Gb  InitParam.o [1]
AVAR_17_6               0x08043df0    0x30  Data  Gb  InitParam.o [1]
AVAR_18                 0x08044af4    0x1c  Data  Gb  InitParam.o [1]
AVAR_18_4               0x080450c8    0x14  Data  Gb  InitParam.o [1]
AVAR_19                 0x08044598    0x24  Data  Gb  InitParam.o [1]
AVAR_19_4               0x08043310    0x3c  Data  Gb  InitParam.o [1]
AVAR_19_6               0x080439a8    0x34  Data  Gb  InitParam.o [1]
AVAR_19_8               0x0804334c    0x3c  Data  Gb  InitParam.o [1]
AVAR_1_4                0x080443a0    0x24  Data  Gb  InitParam.o [1]
AVAR_1_5                0x080443c4    0x24  Data  Gb  InitParam.o [1]
AVAR_1_6                0x080443e8    0x24  Data  Gb  InitParam.o [1]
AVAR_1_7                0x08043388    0x38  Data  Gb  InitParam.o [1]
AVAR_1_8                0x080436d0    0x34  Data  Gb  InitParam.o [1]
AVAR_1_9                0x08044008    0x28  Data  Gb  InitParam.o [1]
AVAR_2                  0x08044030    0x28  Data  Gb  InitParam.o [1]
AVAR_20                 0x08043254    0x40  Data  Gb  InitParam.o [1]
AVAR_20_5               0x080445bc    0x24  Data  Gb  InitParam.o [1]
AVAR_20_6               0x08042e3c    0x50  Data  Gb  InitParam.o [1]
AVAR_20_7               0x08042f24    0x4c  Data  Gb  InitParam.o [1]
AVAR_20_8               0x080439dc    0x34  Data  Gb  InitParam.o [1]
AVAR_20_9               0x08043a10    0x34  Data  Gb  InitParam.o [1]
AVAR_21                 0x08042d2c    0x64  Data  Gb  InitParam.o [1]
AVAR_21_5               0x080445e0    0x24  Data  Gb  InitParam.o [1]
AVAR_21_6               0x08042f70    0x4c  Data  Gb  InitParam.o [1]
AVAR_21_7               0x08042fbc    0x4c  Data  Gb  InitParam.o [1]
AVAR_21_8               0x08043a44    0x34  Data  Gb  InitParam.o [1]
AVAR_21_9               0x08043a78    0x34  Data  Gb  InitParam.o [1]
AVAR_22                 0x08043294    0x40  Data  Gb  InitParam.o [1]
AVAR_22_5               0x08044604    0x24  Data  Gb  InitParam.o [1]
AVAR_22_6               0x08043008    0x4c  Data  Gb  InitParam.o [1]
AVAR_22_7               0x08043054    0x4c  Data  Gb  InitParam.o [1]
AVAR_22_8               0x08043aac    0x34  Data  Gb  InitParam.o [1]
AVAR_22_9               0x08043ae0    0x34  Data  Gb  InitParam.o [1]
AVAR_23                 0x08042cc4    0x68  Data  Gb  InitParam.o [1]
AVAR_23_5               0x08044628    0x24  Data  Gb  InitParam.o [1]
AVAR_23_6               0x080430a0    0x4c  Data  Gb  InitParam.o [1]
AVAR_23_7               0x080430ec    0x4c  Data  Gb  InitParam.o [1]
AVAR_23_8               0x08043b14    0x34  Data  Gb  InitParam.o [1]
AVAR_23_9               0x08043b48    0x34  Data  Gb  InitParam.o [1]
AVAR_24                 0x080441c0    0x28  Data  Gb  InitParam.o [1]
AVAR_24_4               0x0804464c    0x24  Data  Gb  InitParam.o [1]
AVAR_24_5               0x08044670    0x24  Data  Gb  InitParam.o [1]
AVAR_24_6               0x08044694    0x24  Data  Gb  InitParam.o [1]
AVAR_24_7               0x08043660    0x38  Data  Gb  InitParam.o [1]
AVAR_24_8               0x08043b7c    0x34  Data  Gb  InitParam.o [1]
AVAR_24_9               0x080441e8    0x28  Data  Gb  InitParam.o [1]
AVAR_25                 0x08044b10    0x1c  Data  Gb  InitParam.o [1]
AVAR_25_4               0x08044b2c    0x1c  Data  Gb  InitParam.o [1]
AVAR_25_6               0x08043f00    0x2c  Data  Gb  InitParam.o [1]
AVAR_25_7               0x080446b8    0x24  Data  Gb  InitParam.o [1]
AVAR_25_8               0x08043698    0x38  Data  Gb  InitParam.o [1]
AVAR_25_9               0x08044210    0x28  Data  Gb  InitParam.o [1]
AVAR_2_4                0x0804440c    0x24  Data  Gb  InitParam.o [1]
AVAR_2_5                0x08044430    0x24  Data  Gb  InitParam.o [1]
AVAR_2_6                0x08044454    0x24  Data  Gb  InitParam.o [1]
AVAR_2_7                0x080433c0    0x38  Data  Gb  InitParam.o [1]
AVAR_2_8                0x08043704    0x34  Data  Gb  InitParam.o [1]
AVAR_2_9                0x08044058    0x28  Data  Gb  InitParam.o [1]
AVAR_3                  0x08044478    0x24  Data  Gb  InitParam.o [1]
AVAR_3_4                0x0804449c    0x24  Data  Gb  InitParam.o [1]
AVAR_3_5                0x080444c0    0x24  Data  Gb  InitParam.o [1]
AVAR_3_6                0x080444e4    0x24  Data  Gb  InitParam.o [1]
AVAR_3_7                0x080433f8    0x38  Data  Gb  InitParam.o [1]
AVAR_3_8                0x08043738    0x34  Data  Gb  InitParam.o [1]
AVAR_3_9                0x08044080    0x28  Data  Gb  InitParam.o [1]
AVAR_4                  0x08044f84    0x18  Data  Gb  InitParam.o [1]
AVAR_4_5                0x08043e50    0x2c  Data  Gb  InitParam.o [1]
AVAR_4_6                0x08044508    0x24  Data  Gb  InitParam.o [1]
AVAR_4_7                0x08043430    0x38  Data  Gb  InitParam.o [1]
AVAR_4_8                0x0804376c    0x34  Data  Gb  InitParam.o [1]
AVAR_4_9                0x080440a8    0x28  Data  Gb  InitParam.o [1]
AVAR_5                  0x08044abc    0x1c  Data  Gb  InitParam.o [1]
AVAR_5_4                0x0804452c    0x24  Data  Gb  InitParam.o [1]
AVAR_5_5                0x080447dc    0x20  Data  Gb  InitParam.o [1]
AVAR_5_6                0x080440d0    0x28  Data  Gb  InitParam.o [1]
AVAR_5_7                0x08043468    0x38  Data  Gb  InitParam.o [1]
AVAR_5_8                0x080437a0    0x34  Data  Gb  InitParam.o [1]
AVAR_5_9                0x080440f8    0x28  Data  Gb  InitParam.o [1]
AVAR_6                  0x080454a0     0xc  Data  Gb  InitParam.o [1]
AVAR_6_4                0x08043bb0    0x30  Data  Gb  InitParam.o [1]
AVAR_6_5                0x08043be0    0x30  Data  Gb  InitParam.o [1]
AVAR_6_6                0x08043c10    0x30  Data  Gb  InitParam.o [1]
AVAR_6_7                0x080434a0    0x38  Data  Gb  InitParam.o [1]
AVAR_6_8                0x080437d4    0x34  Data  Gb  InitParam.o [1]
AVAR_6_9                0x08042e8c    0x4c  Data  Gb  InitParam.o [1]
AVAR_7                  0x08045204    0x10  Data  Gb  InitParam.o [1]
AVAR_7_4                0x08043c40    0x30  Data  Gb  InitParam.o [1]
AVAR_7_5                0x08043c70    0x30  Data  Gb  InitParam.o [1]
AVAR_7_6                0x08043ca0    0x30  Data  Gb  InitParam.o [1]
AVAR_7_7                0x080434d8    0x38  Data  Gb  InitParam.o [1]
AVAR_7_8                0x08043808    0x34  Data  Gb  InitParam.o [1]
AVAR_7_9                0x08042ed8    0x4c  Data  Gb  InitParam.o [1]
AVAR_8                  0x080447fc    0x20  Data  Gb  InitParam.o [1]
AVAR_8_4                0x08044550    0x24  Data  Gb  InitParam.o [1]
AVAR_8_5                0x0804481c    0x20  Data  Gb  InitParam.o [1]
AVAR_8_6                0x08044120    0x28  Data  Gb  InitParam.o [1]
AVAR_8_7                0x08043510    0x38  Data  Gb  InitParam.o [1]
AVAR_8_8                0x0804383c    0x34  Data  Gb  InitParam.o [1]
AVAR_8_9                0x08044148    0x28  Data  Gb  InitParam.o [1]
AVAR_9                  0x08043548    0x38  Data  Gb  InitParam.o [1]
AVAR_9_4                0x08043cd0    0x30  Data  Gb  InitParam.o [1]
AVAR_9_5                0x08043d00    0x30  Data  Gb  InitParam.o [1]
AVAR_9_6                0x08043d30    0x30  Data  Gb  InitParam.o [1]
AVAR_9_7                0x08043580    0x38  Data  Gb  InitParam.o [1]
AVAR_9_8                0x08043870    0x34  Data  Gb  InitParam.o [1]
AVAR_9_9                0x080435b8    0x38  Data  Gb  InitParam.o [1]
AVAR_NAN                0x08044fcc    0x18  Data  Gb  InitParam.o [1]
A_CR_GPRS_array         0x20012438    0x3c  Data  Gb  fram1.o [1]
A_C_GPRS_array          0x200123fc    0x3c  Data  Gb  fram1.o [1]
A_C_PAR_array           0x20012860    0x10  Data  Gb  fram1.o [1]
A_IP_PAR_array          0x200128bc     0xc  Data  Gb  fram1.o [1]
A_KEYS_array            0x200128c8     0xc  Data  Gb  fram1.o [1]
A_KOD_SIM1_array        0x20012914     0x8  Data  Gb  fram1.o [1]
A_KOD_SIM2_array        0x2001291c     0x8  Data  Gb  fram1.o [1]
A_SEQ_PAR_array         0x20012870    0x10  Data  Gb  fram1.o [1]
A_TRAF_array            0x20012880    0x10  Data  Gb  fram1.o [1]
AddHtmlItemInList       0x08030b73    0x36  Code  Gb  utils.o [1]
AnswerDyn_1             0x080423e0   0x164  Data  Gb  utils.o [1]
AnswerDyn_2             0x08044a5c    0x20  Data  Gb  utils.o [1]
AnswerError             0x08042bc4    0x94  Data  Gb  utils.o [1]
AnswerHead              0x08042de8    0x54  Data  Gb  utils.o [1]
AnswerMain              0x08042b18    0xac  Data  Gb  utils.o [1]
AnswerMainMenu          0x08042544   0x148  Data  Gb  utils.o [1]
AnswerOK                0x080431d0    0x44  Data  Gb  utils.o [1]
Appl_RS485_1            0x20012758    0x18  Data  Gb  base1.o [1]
Appl_RS485_2            0x20012770    0x18  Data  Gb  base1.o [1]
Appl_seq                0x20012654    0x20  Data  Gb  base1.o [1]
Appl_seq_des            0x20012ac8     0x1  Data  Gb  base1.o [1]
Application_SEQ_tx      0x080208f5   0x1b8  Code  Gb  base1.o [1]
ArrSection              0x08040c3c   0x9d8  Data  Gb  InitParam.o [1]
ArrSection_1            0x08041614   0x604  Data  Gb  InitParam.o [1]
ArrSection_2            0x08042a44    0xd4  Data  Gb  utils.o [1]
At_com                  0x200121ec    0x44  Data  Gb  at_com4.o [1]
BEG_BUF_LOG_array       0x20011630    0xf0  Data  Gb  fram1.o [1]
Buf1_rx_ppp             0x20011130   0x150  Data  Gb  base1.o [1]
Buf2_rx_ppp             0x20011280   0x150  Data  Gb  base1.o [1]
CDC_Control_FS          0x0802490d    0x42  Code  Lc  usbd_cdc_if.o [1]
CDC_DeInit_FS           0x08024909     0x4  Code  Lc  usbd_cdc_if.o [1]
CDC_Init_FS             0x080248f1    0x18  Code  Lc  usbd_cdc_if.o [1]
CDC_Receive_FS          0x0802494f    0x28  Code  Lc  usbd_cdc_if.o [1]
CDC_Transmit_FS         0x08024977    0x34  Code  Gb  usbd_cdc_if.o [1]
CLR_DTR0                0x0802af45     0x2  Code  Gb  pins_stm.o [1]
CLR_PWR                 0x0802af59    0x10  Code  Gb  pins_stm.o [1]
CLR_PWRK                0x0802af77     0xe  Code  Gb  pins_stm.o [1]
CLR_RTS0                0x0802af25    0x10  Code  Gb  pins_stm.o [1]
CRC16HighTable          0x20000000   0x100  Data  Gb  modbus.o [1]
CRC16LowTable           0x20000100   0x100  Data  Gb  modbus.o [1]
CSTACK$$Base            0x20012b38           --   Gb  - Linker created -
CSTACK$$Limit           0x20014b38           --   Gb  - Linker created -
CheckData               0x08011525    0x3a  Code  Gb  modbus.o [1]
CheskWordInString       0x08030945    0x28  Code  Gb  utils.o [1]
ClearHTMLString         0x08031ee5    0x18  Code  Gb  utils.o [1]
ColorHtmlText           0x20012b21     0x1  Data  Gb  utils.o [1]
Control                 0x200127cc    0x14  Data  Gb  base1.o [1]
CopyCIPSEND             0x08030efd    0x54  Code  Gb  utils.o [1]
CopyMass                0x0802b07b   0x28a  Code  Gb  fram1.o [1]
CountItemInHtmlList     0x20012a50     0x4  Data  Gb  utils.o [1]
CountSecWaitOK          0x20012b24     0x1  Data  Gb  utils.o [1]
CreatPageForBrowser     0x08031f19   0x196  Code  Gb  utils.o [1]
CreatPageForBrowserDyn  0x080342a9   0x69c  Code  Gb  utils.o [1]
CreatPageForBrowserWat  0x08034971   0x438  Code  Gb  utils.o [1]
CreatPageForBrowser_1   0x080320c5   0x1d6  Code  Gb  utils.o [1]
CreatPageForBrowser_2   0x08034db9   0x112  Code  Gb  utils.o [1]
CreateHtmlItem          0x08030c8d   0x26c  Code  Gb  utils.o [1]
CreateMenuForBrowser    0x080313ed    0xd6  Code  Gb  utils.o [1]
CreateMenuForBrowser_1  0x080314c9    0xce  Code  Gb  utils.o [1]
CreateMenuForBrowser_2  0x080315bd    0xce  Code  Gb  utils.o [1]
CurrPos                 0x20012a6c     0x4  Data  Gb  utils.o [1]
CurrentArhiveIndex      0x20012a54     0x4  Data  Gb  utils.o [1]
CurrentMenu             0x20012b25     0x1  Data  Gb  utils.o [1]
DMA1_Stream3_IRQHandler
                        0x080429e3     0x2  Code  Gb  stm32f4xx_it.o [1]
DMA1_Stream6_IRQHandler
                        0x080429e5     0xa  Code  Gb  stm32f4xx_it.o [1]
DMA1_Stream7_IRQHandler
                        0x080429ef     0xa  Code  Gb  stm32f4xx_it.o [1]
DMA2_Stream0_IRQHandler
                        0x080429f9     0xa  Code  Gb  stm32f4xx_it.o [1]
DMA_SetConfig           0x0802a7c1    0x2e  Code  Lc  stm32f4xx_hal_dma.o [1]
DS18B20ReadROM          0x0801e3b9    0x26  Code  Gb  DS18B20.o [1]
DS18B20_Init            0x0801e2b5    0x44  Code  Gb  DS18B20.o [1]
DS18B20_Read            0x0801e2f9    0x72  Code  Gb  DS18B20.o [1]
DS18B20_UART4_Init      0x0800c469    0x4e  Code  Gb  main.o [1]
DS18B20_Write           0x0801e36b    0x4e  Code  Gb  DS18B20.o [1]
Delay_us                0x0800ad99    0x18  Code  Gb  main.o [1]
DeleteHtmlItem          0x08030b2b    0x48  Code  Gb  utils.o [1]
DoHTML                  0x08034ee1    0xce  Code  Gb  utils.o [1]
DoSendAT                0x08030f55   0x496  Code  Gb  utils.o [1]
DrawLine                0x08032b85  0x16fc  Code  Gb  utils.o [1]
ExtractDataFromString   0x08030ba9    0xd8  Code  Gb  utils.o [1]
FS_Desc                 0x20000458    0x1c  Data  Gb  usbd_desc.o [1]
F_RESET                 0x0800adb1    0x4e  Code  Gb  main.o [1]
FantomModbusAddr        0x20012ab2     0x2  Data  Gb  modbus.o [1]
FindChanel              0x08030ac3    0x68  Code  Gb  utils.o [1]
FlagReadLastArhiveIndex
                        0x20012b22     0x1  Data  Gb  utils.o [1]
Flag_Wait_OK            0x20012b23     0x1  Data  Gb  utils.o [1]
GetAnswerID             0x080309cf    0xf2  Code  Gb  utils.o [1]
GetCountWord            0x080316b9    0x46  Code  Gb  utils.o [1]
GetLastIndexArhive      0x08031ca1    0x24  Code  Gb  utils.o [1]
GetMaskInt              0x0803173d    0x26  Code  Gb  utils.o [1]
GetMaxY                 0x080322dd   0x830  Code  Gb  utils.o [1]
GetParam                0x0803168b    0x28  Code  Gb  utils.o [1]
HAL_ADCEx_InjectedConvCpltCallback
                        0x0801e1ed     0x2  Code  Wk  stm32f4xx_hal_adc_ex.o [1]
HAL_ADCEx_MultiModeConfigChannel
                        0x0801e1ef    0x66  Code  Gb  stm32f4xx_hal_adc_ex.o [1]
HAL_ADCEx_MultiModeStart_DMA
                        0x0801e125    0xc8  Code  Gb  stm32f4xx_hal_adc_ex.o [1]
HAL_ADC_ConfigChannel   0x0801de27   0x184  Code  Gb  stm32f4xx_hal_adc.o [1]
HAL_ADC_ConvCpltCallback
                        0x0800cc31  0x274a  Code  Gb  main.o [1]
HAL_ADC_ConvHalfCpltCallback
                        0x0801de21     0x2  Code  Wk  stm32f4xx_hal_adc.o [1]
HAL_ADC_ErrorCallback   0x0801de25     0x2  Code  Wk  stm32f4xx_hal_adc.o [1]
HAL_ADC_IRQHandler      0x0801dc87   0x19a  Code  Gb  stm32f4xx_hal_adc.o [1]
HAL_ADC_Init            0x0801db89    0x48  Code  Gb  stm32f4xx_hal_adc.o [1]
HAL_ADC_LevelOutOfWindowCallback
                        0x0801de23     0x2  Code  Wk  stm32f4xx_hal_adc.o [1]
HAL_ADC_MspInit         0x080268df   0x122  Code  Gb  stm32f4xx_hal_msp.o [1]
HAL_ADC_Start           0x0801dbd1    0xb6  Code  Gb  stm32f4xx_hal_adc.o [1]
HAL_DAC_ConfigChannel   0x08024869    0x56  Code  Gb  stm32f4xx_hal_dac.o [1]
HAL_DAC_Init            0x080247ad    0x2c  Code  Gb  stm32f4xx_hal_dac.o [1]
HAL_DAC_MspInit         0x08026a01    0x48  Code  Gb  stm32f4xx_hal_msp.o [1]
HAL_DAC_SetValue        0x080248bf    0x30  Code  Gb  stm32f4xx_hal_dac.o [1]
HAL_DAC_Start           0x080247d9    0x90  Code  Gb  stm32f4xx_hal_dac.o [1]
HAL_DMA_DeInit          0x08026f15   0xfe8  Code  Gb  stm32f4xx_hal_dma.o [1]
HAL_DMA_IRQHandler      0x08027fd5  0x2798  Code  Gb  stm32f4xx_hal_dma.o [1]
HAL_DMA_Init            0x08026e95    0x7c  Code  Gb  stm32f4xx_hal_dma.o [1]
HAL_DMA_Start_IT        0x08027f4d    0x86  Code  Gb  stm32f4xx_hal_dma.o [1]
HAL_Delay               0x08015059    0x1a  Code  Wk  stm32f4xx_hal.o [1]
HAL_GPIO_DeInit         0x08011307   0x16c  Code  Gb  stm32f4xx_hal_gpio.o [1]
HAL_GPIO_Init           0x08011115   0x1f2  Code  Gb  stm32f4xx_hal_gpio.o [1]
HAL_GPIO_ReadPin        0x08011473    0x18  Code  Gb  stm32f4xx_hal_gpio.o [1]
HAL_GPIO_TogglePin      0x0801149f     0xa  Code  Gb  stm32f4xx_hal_gpio.o [1]
HAL_GPIO_WritePin       0x0801148b    0x14  Code  Gb  stm32f4xx_hal_gpio.o [1]
HAL_GetTick             0x08015053     0x6  Code  Wk  stm32f4xx_hal.o [1]
HAL_IWDG_Init           0x080229e3    0x50  Code  Gb  stm32f4xx_hal_iwdg.o [1]
HAL_IWDG_MspInit        0x08022a33     0x2  Code  Wk  stm32f4xx_hal_iwdg.o [1]
HAL_IWDG_Refresh        0x08022a65    0x52  Code  Gb  stm32f4xx_hal_iwdg.o [1]
HAL_IWDG_Start          0x08022a35    0x30  Code  Gb  stm32f4xx_hal_iwdg.o [1]
HAL_IncTick             0x08015047     0xc  Code  Wk  stm32f4xx_hal.o [1]
HAL_Init                0x08014ff5    0x2e  Code  Gb  stm32f4xx_hal.o [1]
HAL_InitTick            0x08015023    0x24  Code  Wk  stm32f4xx_hal.o [1]
HAL_MspInit             0x080268c9    0x16  Code  Gb  stm32f4xx_hal_msp.o [1]
HAL_NVIC_DisableIRQ     0x080252a9     0xe  Code  Gb  stm32f4xx_hal_cortex.o [1]
HAL_NVIC_EnableIRQ      0x0802529b     0xe  Code  Gb  stm32f4xx_hal_cortex.o [1]
HAL_NVIC_SetPriority    0x08025275    0x26  Code  Gb  stm32f4xx_hal_cortex.o [1]
HAL_NVIC_SetPriorityGrouping
                        0x08025269     0xc  Code  Gb  stm32f4xx_hal_cortex.o [1]
HAL_PCDEx_SetRxFiFo     0x0803c197     0xc  Code  Gb  stm32f4xx_hal_pcd_ex.o [1]
HAL_PCDEx_SetTxFiFo     0x0803c135    0x62  Code  Gb  stm32f4xx_hal_pcd_ex.o [1]
HAL_PCD_ConnectCallback
                        0x0803570b     0xe  Code  Gb  usbd_conf.o [1]
HAL_PCD_DataInStageCallback
                        0x0803563d    0x1e  Code  Gb  usbd_conf.o [1]
HAL_PCD_DataOutStageCallback
                        0x0803561d    0x20  Code  Gb  usbd_conf.o [1]
HAL_PCD_DisconnectCallback
                        0x08035719     0xe  Code  Gb  usbd_conf.o [1]
HAL_PCD_EP_Close        0x0803be29    0x60  Code  Gb  stm32f4xx_hal_pcd.o [1]
HAL_PCD_EP_ClrStall     0x0803c013    0x60  Code  Gb  stm32f4xx_hal_pcd.o [1]
HAL_PCD_EP_GetRxCount   0x0803bf0b    0x14  Code  Gb  stm32f4xx_hal_pcd.o [1]
HAL_PCD_EP_Open         0x0803bd91    0x98  Code  Gb  stm32f4xx_hal_pcd.o [1]
HAL_PCD_EP_Receive      0x0803be89    0x82  Code  Gb  stm32f4xx_hal_pcd.o [1]
HAL_PCD_EP_SetStall     0x0803bf9f    0x74  Code  Gb  stm32f4xx_hal_pcd.o [1]
HAL_PCD_EP_Transmit     0x0803bf1f    0x80  Code  Gb  stm32f4xx_hal_pcd.o [1]
HAL_PCD_IRQHandler      0x0803b897   0x4ce  Code  Gb  stm32f4xx_hal_pcd.o [1]
HAL_PCD_ISOINIncompleteCallback
                        0x080356f7    0x14  Code  Gb  usbd_conf.o [1]
HAL_PCD_ISOOUTIncompleteCallback
                        0x080356e3    0x14  Code  Gb  usbd_conf.o [1]
HAL_PCD_Init            0x0803b74d   0x11e  Code  Gb  stm32f4xx_hal_pcd.o [1]
HAL_PCD_MspInit         0x08035591    0x7a  Code  Gb  usbd_conf.o [1]
HAL_PCD_ResetCallback   0x08035669    0x38  Code  Gb  usbd_conf.o [1]
HAL_PCD_ResumeCallback  0x080356d5     0xe  Code  Gb  usbd_conf.o [1]
HAL_PCD_SOFCallback     0x0803565b     0xe  Code  Gb  usbd_conf.o [1]
HAL_PCD_SetAddress      0x0803bd65    0x2c  Code  Gb  stm32f4xx_hal_pcd.o [1]
HAL_PCD_SetupStageCallback
                        0x0803560b    0x12  Code  Gb  usbd_conf.o [1]
HAL_PCD_Start           0x0803b86b    0x2c  Code  Gb  stm32f4xx_hal_pcd.o [1]
HAL_PCD_SuspendCallback
                        0x080356a1    0x34  Code  Gb  usbd_conf.o [1]
HAL_PWREx_EnableBkUpReg
                        0x0802644d    0x36  Code  Gb  stm32f4xx_hal_pwr_ex.o [1]
HAL_PWR_EnableBkUpAccess
                        0x08026435    0x12  Code  Gb  stm32f4xx_hal_pwr.o [1]
HAL_RCCEx_PeriphCLKConfig
                        0x0802648d   0x14c  Code  Gb  stm32f4xx_hal_rcc_ex.o [1]
HAL_RCC_ClockConfig     0x08024db5   0x284  Code  Gb  stm32f4xx_hal_rcc.o [1]
HAL_RCC_GetHCLKFreq     0x080250dd    0x28  Code  Gb  stm32f4xx_hal_rcc.o [1]
HAL_RCC_GetPCLK1Freq    0x08025105    0x20  Code  Gb  stm32f4xx_hal_rcc.o [1]
HAL_RCC_GetPCLK2Freq    0x08025125    0x20  Code  Gb  stm32f4xx_hal_rcc.o [1]
HAL_RCC_GetSysClockFreq
                        0x08025039    0xa4  Code  Wk  stm32f4xx_hal_rcc.o [1]
HAL_RCC_OscConfig       0x08024a25   0x390  Code  Wk  stm32f4xx_hal_rcc.o [1]
HAL_RTCEx_BKUPRead      0x08026615    0x12  Code  Gb  stm32f4xx_hal_rtc_ex.o [1]
HAL_RTCEx_BKUPWrite     0x08026601    0x14  Code  Gb  stm32f4xx_hal_rtc_ex.o [1]
HAL_RTC_GetDate         0x08016625    0x50  Code  Gb  stm32f4xx_hal_rtc.o [1]
HAL_RTC_GetTime         0x080164c5    0x5a  Code  Gb  stm32f4xx_hal_rtc.o [1]
HAL_RTC_Init            0x080162f9    0xac  Code  Gb  stm32f4xx_hal_rtc.o [1]
HAL_RTC_MspInit         0x0800fb01    0x78  Code  Gb  sram_rtc.o [1]
HAL_RTC_SetDate         0x0801651f   0x106  Code  Gb  stm32f4xx_hal_rtc.o [1]
HAL_RTC_SetTime         0x080163a5   0x120  Code  Gb  stm32f4xx_hal_rtc.o [1]
HAL_RTC_WaitForSynchro  0x08016681    0x34  Code  Gb  stm32f4xx_hal_rtc.o [1]
HAL_SYSTICK_CLKSourceConfig
                        0x080252c3    0x20  Code  Gb  stm32f4xx_hal_cortex.o [1]
HAL_SYSTICK_Callback    0x08009ebb    0x3c  Code  Gb  main.o [1]
HAL_SYSTICK_Config      0x080252b7     0xc  Code  Gb  stm32f4xx_hal_cortex.o [1]
HAL_SYSTICK_IRQHandler  0x08025309     0x8  Code  Gb  stm32f4xx_hal_cortex.o [1]
HAL_TIMEx_BreakCallback
                        0x08025eb1     0x2  Code  Wk  stm32f4xx_hal_tim_ex.o [1]
HAL_TIMEx_CommutationCallback
                        0x08025eaf     0x2  Code  Wk  stm32f4xx_hal_tim_ex.o [1]
HAL_TIMEx_ConfigBreakDeadTime
                        0x08025e67    0x48  Code  Gb  stm32f4xx_hal_tim_ex.o [1]
HAL_TIMEx_MasterConfigSynchronization
                        0x08025e0d    0x5a  Code  Gb  stm32f4xx_hal_tim_ex.o [1]
HAL_TIM_Base_Init       0x08025311    0x38  Code  Gb  stm32f4xx_hal_tim.o [1]
HAL_TIM_Base_MspInit    0x08026a49   0x166  Code  Gb  stm32f4xx_hal_msp.o [1]
HAL_TIM_Base_Start_IT   0x08025349    0x1e  Code  Gb  stm32f4xx_hal_tim.o [1]
HAL_TIM_Base_Stop_IT    0x08025367    0x36  Code  Gb  stm32f4xx_hal_tim.o [1]
HAL_TIM_ConfigClockSource
                        0x0802585b   0x11e  Code  Gb  stm32f4xx_hal_tim.o [1]
HAL_TIM_IC_CaptureCallback
                        0x080259c9     0x2  Code  Wk  stm32f4xx_hal_tim.o [1]
HAL_TIM_IRQHandler      0x08025579   0x176  Code  Gb  stm32f4xx_hal_tim.o [1]
HAL_TIM_OC_ConfigChannel
                        0x080256ef    0x6c  Code  Gb  stm32f4xx_hal_tim.o [1]
HAL_TIM_OC_DelayElapsedCallback
                        0x080259c7     0x2  Code  Wk  stm32f4xx_hal_tim.o [1]
HAL_TIM_OC_Init         0x0802539d    0x38  Code  Gb  stm32f4xx_hal_tim.o [1]
HAL_TIM_OC_MspInit      0x080253d5     0x2  Code  Wk  stm32f4xx_hal_tim.o [1]
HAL_TIM_OC_Start_IT     0x080253d7    0x98  Code  Gb  stm32f4xx_hal_tim.o [1]
HAL_TIM_OC_Stop_IT      0x0802546f    0xc8  Code  Gb  stm32f4xx_hal_tim.o [1]
HAL_TIM_PWM_ConfigChannel
                        0x0802575b   0x100  Code  Gb  stm32f4xx_hal_tim.o [1]
HAL_TIM_PWM_Init        0x08025537    0x38  Code  Gb  stm32f4xx_hal_tim.o [1]
HAL_TIM_PWM_MspInit     0x0802556f     0x2  Code  Wk  stm32f4xx_hal_tim.o [1]
HAL_TIM_PWM_PulseFinishedCallback
                        0x0800f601   0x1e8  Code  Gb  main.o [1]
HAL_TIM_PeriodElapsedCallback
                        0x0800f37b     0xe  Code  Gb  main.o [1]
HAL_TIM_SlaveConfigSynchronization
                        0x08025979    0x4e  Code  Gb  stm32f4xx_hal_tim.o [1]
HAL_TIM_TriggerCallback
                        0x080259cb     0x2  Code  Wk  stm32f4xx_hal_tim.o [1]
HAL_UART_DeInit         0x080178b9    0x2c  Code  Gb  stm32f4xx_hal_uart.o [1]
HAL_UART_ErrorCallback  0x0800cb15    0x72  Code  Gb  main.o [1]
HAL_UART_IRQHandler     0x08017c9f   0x158  Code  Gb  stm32f4xx_hal_uart.o [1]
HAL_UART_Init           0x08017849    0x70  Code  Gb  stm32f4xx_hal_uart.o [1]
HAL_UART_MspDeInit      0x08026db3    0x82  Code  Gb  stm32f4xx_hal_msp.o [1]
HAL_UART_MspInit        0x08026baf   0x204  Code  Gb  stm32f4xx_hal_msp.o [1]
HAL_UART_Receive        0x080179e1   0x106  Code  Gb  stm32f4xx_hal_uart.o [1]
HAL_UART_Receive_IT     0x08017b6f    0x88  Code  Gb  stm32f4xx_hal_uart.o [1]
HAL_UART_RxCpltCallback
                        0x0800c9cf    0xcc  Code  Gb  main.o [1]
HAL_UART_Transmit       0x080178e5    0xfc  Code  Gb  stm32f4xx_hal_uart.o [1]
HAL_UART_Transmit_DMA   0x08017bf7    0xa8  Code  Gb  stm32f4xx_hal_uart.o [1]
HAL_UART_Transmit_IT    0x08017ae7    0x88  Code  Gb  stm32f4xx_hal_uart.o [1]
HAL_UART_TxCpltCallback
                        0x0800ca9b    0x72  Code  Gb  main.o [1]
HAL_UART_TxHalfCpltCallback
                        0x08017df7     0x2  Code  Wk  stm32f4xx_hal_uart.o [1]
HEAP$$Base              0x20014b38           --   Gb  - Linker created -
HEAP$$Limit             0x20015b38           --   Gb  - Linker created -
HTMLString              0x200004b4  0x3000  Data  Gb  utils.o [1]
HardFault_Handler       0x08042979    0x10  Code  Gb  stm32f4xx_it.o [1]
IPCP_act_buf            0x200128b0     0xc  Data  Gb  fppp3.o [1]
IPCP_event              0x20012ada     0x1  Data  Gb  fppp3.o [1]
IPCP_state              0x20012ad9     0x1  Data  Gb  fppp3.o [1]
InStream_Read           0x0804221d    0x22  Code  Lc  lz77_init.o [6]
LCP_act_buf             0x20012850    0x10  Data  Gb  fppp3.o [1]
LCP_event               0x20012ad8     0x1  Data  Gb  fppp3.o [1]
LCP_state               0x20012ad7     0x1  Data  Gb  fppp3.o [1]
LastArhiveIndex         0x20012a58     0x4  Data  Gb  utils.o [1]
LengthInBuf             0x20012a70     0x4  Data  Gb  utils.o [1]
Life                    0x20012840    0x10  Data  Gb  fppp3.o [1]
LoadInt                 0x08037e1d    0x6e  Code  Lc  xprintflarge_nomb.o [3]
MX_ADC1_Init            0x0800bf71    0xd2  Code  Lc  main.o [1]
MX_ADC2_Init            0x0800c059    0xb6  Code  Lc  main.o [1]
MX_ADC3_Init            0x0800c115    0xb6  Code  Lc  main.o [1]
MX_DAC_Init             0x08009f55    0x68  Code  Gb  main.o [1]
MX_DMA_Init             0x0800c5c1    0x70  Code  Lc  main.o [1]
MX_GPIO_Init            0x0800c641   0x38e  Code  Lc  main.o [1]
MX_IWDG_Init            0x08009f27    0x2e  Code  Lc  main.o [1]
MX_TIM1_Init            0x0800c1d5   0x108  Code  Lc  main.o [1]
MX_TIM2_Init            0x0800c2e9    0x84  Code  Lc  main.o [1]
MX_TIM3_Init            0x0800c36d    0x78  Code  Lc  main.o [1]
MX_TIM5_Init            0x0800c3e5    0x84  Code  Lc  main.o [1]
MX_UART5_Init           0x0800c569    0x50  Code  Lc  main.o [1]
MX_USART2_UART_Init     0x0800c507    0x5c  Code  Lc  main.o [1]
MX_USART3_UART_Init     0x0800c4b7    0x50  Code  Gb  main.o [1]
MX_USB_DEVICE_Init      0x0801eafd    0x34  Code  Gb  usb_device.o [1]
MyinBuffer              0x20008400  0x1388  Data  Gb  fppp3.o [1]
MyoutBuffer             0x20007078  0x1388  Data  Gb  fppp3.o [1]
NVIC_DisableIRQ         0x080251c1    0x14  Code  Lc  stm32f4xx_hal_cortex.o [1]
NVIC_EnableIRQ          0x080251ad    0x14  Code  Lc  stm32f4xx_hal_cortex.o [1]
NVIC_EncodePriority     0x080251fb    0x3e  Code  Lc  stm32f4xx_hal_cortex.o [1]
NVIC_GetPriorityGrouping
                        0x080251a3     0xa  Code  Lc  stm32f4xx_hal_cortex.o [1]
NVIC_SetPriority        0x080251d5    0x26  Code  Lc  stm32f4xx_hal_cortex.o [1]
NVIC_SetPriorityGrouping
                        0x08025185    0x1e  Code  Lc  stm32f4xx_hal_cortex.o [1]
OTG_FS_IRQHandler       0x08042a03     0xa  Code  Gb  stm32f4xx_it.o [1]
Obj_ppp_tx              0x2001273c    0x1c  Data  Gb  fppp3.o [1]
OutStream_Write         0x0804223f    0x40  Code  Lc  lz77_init.o [6]
PAP_event               0x20012ad6     0x1  Data  Gb  fppp3.o [1]
PAP_state               0x20012ad5     0x1  Data  Gb  fppp3.o [1]
PCD_WriteEmptyTxFifo    0x0803c073    0xc2  Code  Lc  stm32f4xx_hal_pcd.o [1]
PItem                   0x20011d50    0x70  Data  Gb  utils.o [1]
PWM_DisableOutputs      0x0801c2c3    0x42  Code  Gb  pwm.o [1]
PWM_EnableOutputs       0x0801c281    0x42  Code  Gb  pwm.o [1]
PWM_Start               0x0801c305    0x3c  Code  Gb  pwm.o [1]
ParamItem               0x08000188  0x9450  Data  Gb  InitParam.o [1]
ParamItem_1             0x0803dcfc  0x2f40  Data  Gb  InitParam.o [1]
Pos                     0x080308df    0x66  Code  Gb  utils.o [1]
PreparaeSim800Work      0x080267df    0x90  Code  Gb  prepare_sim800.o [1]
PrevID                  0x20012a5c     0x4  Data  Gb  utils.o [1]
Q10                     0x20012aa2     0x2  Data  Gb  main.o [1]
RTC_Bcd2ToByte          0x08016703    0x1a  Code  Gb  stm32f4xx_hal_rtc.o [1]
RTC_ByteToBcd2          0x080166ed    0x16  Code  Gb  stm32f4xx_hal_rtc.o [1]
RTC_CalendarConfig      0x0800fb79    0x6a  Code  Lc  sram_rtc.o [1]
RTC_DateStructure       0x20012a44     0x4  Data  Gb  sram_rtc.o [1]
RTC_EnterInitMode       0x080166b5    0x38  Code  Gb  stm32f4xx_hal_rtc.o [1]
RTC_TimeStructure       0x2001281c    0x14  Data  Gb  sram_rtc.o [1]
RTC_UnixTime            0x20012938     0x8  Data  Gb  sram_rtc.o [1]
ReadDataFromArhive      0x08031cdd   0x208  Code  Gb  utils.o [1]
ReadDataFromMemory      0x08031a51   0x24c  Code  Gb  utils.o [1]
Region$$Table$$Base     0x08044790           --   Gb  - Linker created -
Region$$Table$$Limit    0x080447bc           --   Gb  - Linker created -
ResetTaskSim800         0x20012ac6     0x1  Data  Gb  base1.o [1]
RxSim800Handler         0x0802463b    0x8e  Code  Gb  interr4.o [1]
S1_GR                   0x0802afbd    0x1c  Code  Gb  pins_stm.o [1]
S1_OFF                  0x0802af85    0x1c  Code  Gb  pins_stm.o [1]
S1_RD                   0x0802afd9    0x1c  Code  Gb  pins_stm.o [1]
S1_YL                   0x0802afa1    0x1c  Code  Gb  pins_stm.o [1]
SET_DTR0                0x0802af47     0x2  Code  Gb  pins_stm.o [1]
SET_PWR                 0x0802af49    0x10  Code  Gb  pins_stm.o [1]
SET_PWRK                0x0802af69     0xe  Code  Gb  pins_stm.o [1]
SET_RTS0                0x0802af35    0x10  Code  Gb  pins_stm.o [1]
SectionName             0x200121a4    0x48  Data  Gb  utils.o [1]
StepCount               0x20012b26     0x1  Data  Gb  utils.o [1]
StrToInt                0x0803096f    0x60  Code  Gb  utils.o [1]
SysTick_Config          0x08025239    0x30  Code  Lc  stm32f4xx_hal_cortex.o [1]
SysTick_Handler         0x0804296d     0xc  Code  Gb  stm32f4xx_it.o [1]
SystemClock_Config      0x0800bea5    0xb8  Code  Gb  main.o [1]
SystemCoreClock         0x200004a4     0x4  Data  Gb  system_stm32f4xx.o [1]
SystemInit              0x08042c59    0x4c  Code  Gb  system_stm32f4xx.o [1]
TCInputs                0x20011e78    0x5c  Data  Gb  main.o [1]
TCInputsInit            0x08009ef7    0x30  Code  Gb  main.o [1]
TIM1_CC_IRQHandler      0x08042993     0xa  Code  Gb  stm32f4xx_it.o [1]
TIM2_IRQHandler         0x0804299d     0xa  Code  Gb  stm32f4xx_it.o [1]
TIM3_IRQHandler         0x080429a7     0xa  Code  Gb  stm32f4xx_it.o [1]
TIM4_IRQHandler         0x080429b1     0xa  Code  Gb  stm32f4xx_it.o [1]
TIM5_IRQHandler         0x080429bb     0xa  Code  Gb  stm32f4xx_it.o [1]
TIM_Base_SetConfig      0x080259cd    0xe6  Code  Gb  stm32f4xx_hal_tim.o [1]
TIM_CCxChannelCmd       0x08025b31    0x1e  Code  Gb  stm32f4xx_hal_tim.o [1]
TIM_CCxNChannelCmd      0x0801c345    0x1e  Code  Gb  pwm.o [1]
TIM_ETR_SetConfig       0x08025df1    0x1c  Code  Lc  stm32f4xx_hal_tim.o [1]
TIM_ITRx_SetConfig      0x08025ddb    0x16  Code  Lc  stm32f4xx_hal_tim.o [1]
TIM_OC1_SetConfig       0x08025b4f    0x72  Code  Lc  stm32f4xx_hal_tim.o [1]
TIM_OC2_SetConfig       0x08025ab3    0x7c  Code  Gb  stm32f4xx_hal_tim.o [1]
TIM_OC3_SetConfig       0x08025bc1    0x7a  Code  Lc  stm32f4xx_hal_tim.o [1]
TIM_OC4_SetConfig       0x08025c3b    0x64  Code  Lc  stm32f4xx_hal_tim.o [1]
TIM_SlaveTimer_SetConfig
                        0x08025ccd    0xb4  Code  Lc  stm32f4xx_hal_tim.o [1]
TIM_TI1_ConfigInputStage
                        0x08025d81    0x2c  Code  Lc  stm32f4xx_hal_tim.o [1]
TIM_TI2_ConfigInputStage
                        0x08025dad    0x2e  Code  Lc  stm32f4xx_hal_tim.o [1]
TxSim800Handler         0x080246c9    0x36  Code  Gb  interr4.o [1]
UART5_IRQHandler        0x080429d9     0xa  Code  Gb  stm32f4xx_it.o [1]
UART_DMAError           0x08017e3d    0x24  Code  Lc  stm32f4xx_hal_uart.o [1]
UART_DMATransmitCplt    0x08017df9    0x34  Code  Lc  stm32f4xx_hal_uart.o [1]
UART_DMATxHalfCplt      0x08017e2d     0xe  Code  Lc  stm32f4xx_hal_uart.o [1]
UART_EndTransmit_IT     0x08017fbd    0x48  Code  Lc  stm32f4xx_hal_uart.o [1]
UART_Receive_IT         0x08018005    0xc4  Code  Lc  stm32f4xx_hal_uart.o [1]
UART_SetConfig          0x080180c9   0x1f8  Code  Lc  stm32f4xx_hal_uart.o [1]
UART_Transmit_IT        0x08017f43    0x7a  Code  Lc  stm32f4xx_hal_uart.o [1]
UART_WaitOnFlagUntilTimeout
                        0x08017e61    0xe2  Code  Lc  stm32f4xx_hal_uart.o [1]
USART2_IRQHandler       0x080429c5     0xa  Code  Gb  stm32f4xx_it.o [1]
USART3_IRQHandler       0x080429cf     0xa  Code  Gb  stm32f4xx_it.o [1]
USBD_CDC                0x20000420    0x38  Data  Gb  usbd_cdc.o [1]
USBD_CDC_CfgFSDesc      0x20000398    0x44  Data  Gb  usbd_cdc.o [1]
USBD_CDC_CfgHSDesc      0x20000354    0x44  Data  Gb  usbd_cdc.o [1]
USBD_CDC_DataIn         0x0802ada9    0x1c  Code  Lc  usbd_cdc.o [1]
USBD_CDC_DataOut        0x0802adc5    0x38  Code  Lc  usbd_cdc.o [1]
USBD_CDC_DeInit         0x0802ace1    0x44  Code  Lc  usbd_cdc.o [1]
USBD_CDC_DeviceQualifierDesc
                        0x20000498     0xc  Data  Lc  usbd_cdc.o [1]
USBD_CDC_EP0_RxReady    0x0802adfd    0x36  Code  Lc  usbd_cdc.o [1]
USBD_CDC_GetDeviceQualifierDescriptor
                        0x0802ae51     0xa  Code  Gb  usbd_cdc.o [1]
USBD_CDC_GetFSCfgDesc   0x0802ae33     0xa  Code  Lc  usbd_cdc.o [1]
USBD_CDC_GetHSCfgDesc   0x0802ae3d     0xa  Code  Lc  usbd_cdc.o [1]
USBD_CDC_GetOtherSpeedCfgDesc
                        0x0802ae47     0xa  Code  Lc  usbd_cdc.o [1]
USBD_CDC_Init           0x0802ac31    0xb0  Code  Lc  usbd_cdc.o [1]
USBD_CDC_OtherSpeedCfgDesc
                        0x200003dc    0x44  Data  Gb  usbd_cdc.o [1]
USBD_CDC_ReceivePacket  0x0802aee7    0x3e  Code  Gb  usbd_cdc.o [1]
USBD_CDC_RegisterInterface
                        0x0802ae71    0x14  Code  Gb  usbd_cdc.o [1]
USBD_CDC_SetRxBuffer    0x0802ae9d     0xe  Code  Gb  usbd_cdc.o [1]
USBD_CDC_SetTxBuffer    0x0802ae85    0x18  Code  Gb  usbd_cdc.o [1]
USBD_CDC_Setup          0x0802ad25    0x84  Code  Lc  usbd_cdc.o [1]
USBD_CDC_TransmitPacket
                        0x0802aeab    0x3c  Code  Gb  usbd_cdc.o [1]
USBD_ClrClassConfig     0x0802a97b    0x18  Code  Gb  usbd_core.o [1]
USBD_ClrFeature         0x0803604b    0x3a  Code  Lc  usbd_ctlreq.o [1]
USBD_CtlContinueRx      0x0803618d    0x1a  Code  Gb  usbd_ioreq.o [1]
USBD_CtlContinueSendData
                        0x08036147    0x1a  Code  Gb  usbd_ioreq.o [1]
USBD_CtlError           0x080360ad    0x18  Code  Gb  usbd_ctlreq.o [1]
USBD_CtlPrepareRx       0x08036161    0x2c  Code  Gb  usbd_ioreq.o [1]
USBD_CtlReceiveStatus   0x080361c1    0x1a  Code  Gb  usbd_ioreq.o [1]
USBD_CtlSendData        0x0803611f    0x28  Code  Gb  usbd_ioreq.o [1]
USBD_CtlSendStatus      0x080361a7    0x1a  Code  Gb  usbd_ioreq.o [1]
USBD_FS_ConfigStrDescriptor
                        0x08042901    0x26  Code  Gb  usbd_desc.o [1]
USBD_FS_DeviceDesc      0x20000474    0x14  Data  Gb  usbd_desc.o [1]
USBD_FS_DeviceDescriptor
                        0x0804288d     0xa  Code  Gb  usbd_desc.o [1]
USBD_FS_InterfaceStrDescriptor
                        0x08042927    0x26  Code  Gb  usbd_desc.o [1]
USBD_FS_LangIDStrDescriptor
                        0x08042897     0xa  Code  Gb  usbd_desc.o [1]
USBD_FS_ManufacturerStrDescriptor
                        0x080428c7    0x14  Code  Gb  usbd_desc.o [1]
USBD_FS_ProductStrDescriptor
                        0x080428a1    0x26  Code  Gb  usbd_desc.o [1]
USBD_FS_SerialStrDescriptor
                        0x080428db    0x26  Code  Gb  usbd_desc.o [1]
USBD_GetConfig          0x08035f9d    0x4c  Code  Lc  usbd_ctlreq.o [1]
USBD_GetDescriptor      0x08035cf9   0x164  Code  Lc  usbd_ctlreq.o [1]
USBD_GetLen             0x0803610b    0x14  Code  Lc  usbd_ctlreq.o [1]
USBD_GetStatus          0x08035fe9    0x3c  Code  Lc  usbd_ctlreq.o [1]
USBD_GetString          0x080360c5    0x46  Code  Gb  usbd_ctlreq.o [1]
USBD_Init               0x0802a8e9    0x38  Code  Gb  usbd_core.o [1]
USBD_Interface_fops_FS  0x20000488    0x10  Data  Gb  usbd_cdc_if.o [1]
USBD_LL_ClearStallEP    0x08035917    0x4c  Code  Gb  usbd_conf.o [1]
USBD_LL_CloseEP         0x0803587f    0x4c  Code  Gb  usbd_conf.o [1]
USBD_LL_DataInStage     0x0802aa8b    0xe2  Code  Gb  usbd_core.o [1]
USBD_LL_DataOutStage    0x0802a9fd    0x8e  Code  Gb  usbd_core.o [1]
USBD_LL_DevConnected    0x0802ac0d     0x6  Code  Gb  usbd_core.o [1]
USBD_LL_DevDisconnected
                        0x0802ac13    0x1c  Code  Gb  usbd_core.o [1]
USBD_LL_GetRxDataSize   0x08035aab    0x14  Code  Gb  usbd_conf.o [1]
USBD_LL_Init            0x08035727    0x8e  Code  Gb  usbd_conf.o [1]
USBD_LL_IsStallEP       0x08035963    0x30  Code  Gb  usbd_conf.o [1]
USBD_LL_IsoINIncomplete
                        0x0802ac01     0x6  Code  Gb  usbd_core.o [1]
USBD_LL_IsoOUTIncomplete
                        0x0802ac07     0x6  Code  Gb  usbd_core.o [1]
USBD_LL_OpenEP          0x08035817    0x68  Code  Gb  usbd_conf.o [1]
USBD_LL_PrepareReceive  0x08035a45    0x66  Code  Gb  usbd_conf.o [1]
USBD_LL_Reset           0x0802ab6d    0x46  Code  Gb  usbd_core.o [1]
USBD_LL_Resume          0x0802abcf     0xe  Code  Gb  usbd_core.o [1]
USBD_LL_SOF             0x0802abdd    0x24  Code  Gb  usbd_core.o [1]
USBD_LL_SetSpeed        0x0802abb3     0x8  Code  Gb  usbd_core.o [1]
USBD_LL_SetUSBAddress   0x08035993    0x4c  Code  Gb  usbd_conf.o [1]
USBD_LL_SetupStage      0x0802a993    0x6a  Code  Gb  usbd_core.o [1]
USBD_LL_StallEP         0x080358cb    0x4c  Code  Gb  usbd_conf.o [1]
USBD_LL_Start           0x080357d1    0x46  Code  Gb  usbd_conf.o [1]
USBD_LL_Suspend         0x0802abbb    0x14  Code  Gb  usbd_core.o [1]
USBD_LL_Transmit        0x080359df    0x66  Code  Gb  usbd_conf.o [1]
USBD_LangIDDesc         0x200004a8     0x4  Data  Gb  usbd_desc.o [1]
USBD_ParseSetupRequest  0x08036085    0x28  Code  Gb  usbd_ctlreq.o [1]
USBD_RegisterClass      0x0802a921    0x1a  Code  Gb  usbd_core.o [1]
USBD_RunTestMode        0x0802a949     0x6  Code  Gb  usbd_core.o [1]
USBD_SetAddress         0x08035e5d    0x60  Code  Lc  usbd_ctlreq.o [1]
USBD_SetClassConfig     0x0802a94f    0x2c  Code  Gb  usbd_core.o [1]
USBD_SetConfig          0x08035ebd    0xda  Code  Lc  usbd_ctlreq.o [1]
USBD_SetFeature         0x08036025    0x26  Code  Lc  usbd_ctlreq.o [1]
USBD_Start              0x0802a93b     0xe  Code  Gb  usbd_core.o [1]
USBD_StdDevReq          0x08035ac1    0x7c  Code  Gb  usbd_ctlreq.o [1]
USBD_StdEPReq           0x08035b89   0x170  Code  Gb  usbd_ctlreq.o [1]
USBD_StdItfReq          0x08035b3d    0x4c  Code  Gb  usbd_ctlreq.o [1]
USBD_StrDesc            0x200105dc   0x200  Data  Gb  usbd_desc.o [1]
USB_ActivateEndpoint    0x0803ca55    0xc4  Code  Gb  stm32f4xx_ll_usb.o [1]
USB_ActivateSetup       0x0803d393    0x44  Code  Gb  stm32f4xx_ll_usb.o [1]
USB_CoreInit            0x0803c73d    0x6e  Code  Gb  stm32f4xx_ll_usb.o [1]
USB_CoreReset           0x0803d42f    0x38  Code  Lc  stm32f4xx_ll_usb.o [1]
USB_DeactivateEndpoint  0x0803cb19    0xaa  Code  Gb  stm32f4xx_ll_usb.o [1]
USB_DevConnect          0x0803d2c7    0x1e  Code  Gb  stm32f4xx_ll_usb.o [1]
USB_DevDisconnect       0x0803d2e5    0x1e  Code  Gb  stm32f4xx_ll_usb.o [1]
USB_DevInit             0x0803c7fd   0x1b0  Code  Gb  stm32f4xx_ll_usb.o [1]
USB_DisableGlobalInt    0x0803c7b9     0xe  Code  Gb  stm32f4xx_ll_usb.o [1]
USB_EP0StartXfer        0x0803cf09   0x1ec  Code  Gb  stm32f4xx_ll_usb.o [1]
USB_EP0_OutStart        0x0803d3d7    0x58  Code  Gb  stm32f4xx_ll_usb.o [1]
USB_EPClearStall        0x0803d205    0x96  Code  Gb  stm32f4xx_ll_usb.o [1]
USB_EPSetStall          0x0803d167    0x9e  Code  Gb  stm32f4xx_ll_usb.o [1]
USB_EPStartXfer         0x0803cbc3   0x340  Code  Gb  stm32f4xx_ll_usb.o [1]
USB_EnableGlobalInt     0x0803c7ab     0xe  Code  Gb  stm32f4xx_ll_usb.o [1]
USB_FlushRxFifo         0x0803c9d1    0x20  Code  Gb  stm32f4xx_ll_usb.o [1]
USB_FlushTxFifo         0x0803c9ad    0x24  Code  Gb  stm32f4xx_ll_usb.o [1]
USB_GetDevSpeed         0x0803ca07    0x4e  Code  Gb  stm32f4xx_ll_usb.o [1]
USB_GetMode             0x0803d38b     0x8  Code  Gb  stm32f4xx_ll_usb.o [1]
USB_ReadDevAllInEpInterrupt
                        0x0803d327    0x16  Code  Gb  stm32f4xx_ll_usb.o [1]
USB_ReadDevAllOutEpInterrupt
                        0x0803d311    0x16  Code  Gb  stm32f4xx_ll_usb.o [1]
USB_ReadDevInEPInterrupt
                        0x0803d357    0x34  Code  Gb  stm32f4xx_ll_usb.o [1]
USB_ReadDevOutEPInterrupt
                        0x0803d33d    0x1a  Code  Gb  stm32f4xx_ll_usb.o [1]
USB_ReadInterrupts      0x0803d303     0xe  Code  Gb  stm32f4xx_ll_usb.o [1]
USB_ReadPacket          0x0803d13b    0x2c  Code  Gb  stm32f4xx_ll_usb.o [1]
USB_SetCurrentMode      0x0803c7c7    0x36  Code  Gb  stm32f4xx_ll_usb.o [1]
USB_SetDevAddress       0x0803d29b    0x2c  Code  Gb  stm32f4xx_ll_usb.o [1]
USB_SetDevSpeed         0x0803c9f1    0x16  Code  Gb  stm32f4xx_ll_usb.o [1]
USB_WritePacket         0x0803d0f5    0x46  Code  Gb  stm32f4xx_ll_usb.o [1]
U_f_dependancy          0x08018341   0x20c  Code  Gb  pwm.o [1]
UserRxBufferFS          0x2000d568   0x800  Data  Gb  usbd_cdc_if.o [1]
UserTxBufferFS          0x2000dd68   0x800  Data  Gb  usbd_cdc_if.o [1]
ValData                 0x2001262c    0x28  Data  Gb  utils.o [1]
ValStr                  0x20012604    0x28  Data  Gb  utils.o [1]
WriteDataToMemory       0x08031763   0x2c4  Code  Gb  utils.o [1]
_Error_Handler          0x0800f8ad     0x2  Code  Gb  main.o [1]
_GenldLargeNoMb         0x08038211   0x248  Code  Lc  xprintflarge_nomb.o [3]
_LdtobLargeNoMb         0x08037f91   0x27a  Code  Lc  xprintflarge_nomb.o [3]
_LitobLargeNoMb         0x08037e8b   0x106  Code  Lc  xprintflarge_nomb.o [3]
_PrintfLargeNoMb        0x080378a1   0x576  Code  Gb  xprintflarge_nomb.o [3]
_PutcharsLargeNoMb      0x08038459    0x2e  Code  Lc  xprintflarge_nomb.o [3]
_Rand_idx               0x20000208     0x4  Data  Lc  rand.o [3]
_Rand_rv                0x2000020c    0x80  Data  Lc  rand.o [3]
_Randinit               0x20000200     0x1  Data  Gb  rand.o [3]
_Randseed               0x20000204     0x4  Data  Gb  rand.o [3]
_SProut                 0x0800f93b     0xa  Code  Gb  xsprout.o [3]
_Stoflt                 0x0803d5bd   0x1b4  Code  Gb  xstoflt.o [3]
_Stopfx                 0x0803d48d   0x130  Code  Gb  xstopfx.o [3]
_Stoxflt                0x0803d971   0x1cc  Code  Gb  xstoxflt.o [3]
__aeabi_cdcmpeq         0x0803dc85          Code  Gb  DblCmpEq.o [5]
__aeabi_cdcmple         0x080249f5          Code  Gb  DblCmpLe.o [5]
__aeabi_cdrcmple        0x0802a869          Code  Gb  DblCmpGe.o [5]
__aeabi_d2f             0x0800fa45          Code  Gb  DblToFlt.o [5]
__aeabi_d2uiz           0x08026629          Code  Gb  DblToI32.o [5]
__aeabi_dadd            0x08025f79          Code  Gb  DblAdd.o [5]
__aeabi_ddiv            0x08026061          Code  Gb  DblDiv.o [5]
__aeabi_dmul            0x0803c289          Code  Gb  DblMul.o [5]
__aeabi_dsub            0x080262a9          Code  Gb  DblSub.o [5]
__aeabi_errno_addr      0x080354e1     0x6  Code  Gb  errno.o [3]
__aeabi_f2d             0x0800f8ed          Code  Gb  FltToDbl.o [5]
__aeabi_i2d             0x080249c5          Code  Gb  I32ToDbl.o [5]
__aeabi_ldiv0           0x0803b749          Code  Gb  I64DivZer.o [6]
__aeabi_ldivmod         0x080352c1          Code  Gb  I64DivMod.o [6]
__aeabi_memset          0x080377bd          Code  Gb  ABImemset.o [6]
__aeabi_ui2d            0x080249d9          Code  Gb  I32ToDbl.o [5]
__aeabi_uldivmod        0x08035305          Code  Gb  I64DivMod.o [6]
__as_entries_start      0xffffffff           --   Gb  command line/config [2]
__as_table_start        0xffffffff           --   Gb  command line/config [2]
__cmain                 0x08044f55          Code  Gb  cmain.o [6]
__data_GetMemChunk      0x0803c1a9    0x2c  Code  Gb  xgetmemchunk.o [3]
__exit                  0x0803d479    0x14  Code  Gb  exit.o [7]
__iar_Dnorm             0x0803c245    0x42  Code  Gb  xdnorm.o [5]
__iar_Dscale            0x0803db71   0x114  Code  Gb  xdscale.o [5]
__iar_Dtentox           0x0803d7cd   0x13e  Code  Gb  xdtento.o [5]
__iar_Dunscale          0x0803dca5    0x56  Code  Gb  xdunscal.o [5]
__iar_Errno             0x200004ac     0x4  Data  Gb  errno.o [3]
__iar_Memchr            0x0803c1ed          Code  Gb  memchr.o [6]
__iar_Memset            0x080377bd          Code  Gb  ABImemset.o [6]
__iar_Memset_word       0x080377c5          Code  Gb  ABImemset.o [6]
__iar_Stod              0x0803c739     0x4  Code  Gb  xstod.o [5]
__iar_Stodx             0x0803c5d5   0x14e  Code  Gb  xstod.o [5]
__iar_Stoul             0x0803c581     0x4  Code  Gb  xstoul.o [3]
__iar_Stoulx            0x0803c439   0x142  Code  Gb  xstoul.o [3]
__iar_Strchr            0x0803c1d5          Code  Gb  strchr.o [6]
__iar_d2uiz             0x08026635          Code  Gb  DblToI32.o [5]
__iar_dadd              0x08025f8d          Code  Gb  DblAdd.o [5]
__iar_data_init3        0x08044379    0x28  Code  Gb  data_init.o [6]
__iar_dlfree            0x080371c5   0x510  Code  Gb  dlmalloc.o [3]
__iar_dlib_perthread_access
                        0x0803b74b     0x2  Code  Gb  xtls.o [3]
__iar_dlmalloc          0x08036f0f   0x2aa  Code  Gb  dlmalloc.o [3]
__iar_dsub              0x080262bd          Code  Gb  DblSub.o [5]
__iar_dsubStart         0x080262cf          Code  Gb  DblSub.o [5]
__iar_edom              0x08026429          Code  Gb  iarEdom.o [6]
__iar_gm_               0x200107dc   0x1d8  Data  Gb  dlmalloc.o [3]
__iar_init_vfp          0x08044f39          Code  Gb  fpinit_M.o [5]
__iar_lz77_init3        0x0804227f   0x160  Code  Gb  lz77_init.o [6]
__iar_program_start     0x080455f1          Code  Gb  cstartup_M.o [6]
__iar_sqrt              0x0800f955          Code  Gb  sqrt.o [5]
__iar_strcmp            0x080384a5          Code  Gb  strcmp_unaligned.o [6]
__iar_ui2d              0x080249dd          Code  Gb  I32ToDbl.o [5]
__iar_unaligned___aeabi_memcpy
                        0x0801671d          Code  Gb  ABImemcpy_unaligned.o [6]
__iar_unaligned___aeabi_memcpy4
                        0x0801673d          Code  Gb  ABImemcpy_unaligned.o [6]
__iar_unaligned___aeabi_memcpy8
                        0x0801673d          Code  Gb  ABImemcpy_unaligned.o [6]
__iar_unaligned_strcmp  0x080384a5          Code  Gb  strcmp_unaligned.o [6]
__iar_unaligned_strcpy  0x08037825          Code  Gb  strcpy_unaligned.o [6]
__iar_vfp_atof          0x080386a1    0x10  Code  Gb  atof.o [5]
__iar_vfp_sqrt          0x0800f945          Code  Gb  sqrt.o [5]
__iar_vfp_sqrtl         0x0800f945          Code  Gb  sqrt.o [5]
__iar_xatanf            0x080354ed          Code  Gb  xatanf.o [5]
__iar_zero_init3        0x0800f8af    0x22  Code  Gb  zero_init3.o [6]
__low_level_init        0x08044f6f     0x4  Code  Gb  low_level_init.o [3]
__vector_table          0x08000000          Data  Gb  startup_stm32f417xx.o [1]
_call_main              0x08044f61          Code  Gb  cmain.o [6]
_exit                   0x08044f79          Code  Gb  cexit.o [6]
_main                   0x08044f6b          Code  Gb  cmain.o [6]
abort                   0x0803c1a3     0x6  Code  Gb  abort.o [3]
activeEnergyInit        0x08010fc1    0x6e  Code  Gb  sram_rtc.o [1]
activeEnergyTask        0x0801102f    0xa8  Code  Gb  sram_rtc.o [1]
activePower             0x20012788    0x18  Data  Gb  sram_rtc.o [1]
adcInputs               0x20011898    0x9c  Data  Gb  pwm.o [1]
adcInputsInit           0x0800a3f5   0x326  Code  Gb  main.o [1]
adcInputsShadow         0x20011934    0x9c  Data  Gb  pwm.o [1]
adc_data                0x200127f4    0x14  Data  Gb  main.o [1]
alarms                  0x20011a68    0x7c  Data  Gb  alarms.o [1]
alarmsInit              0x080156d5   0x35c  Code  Gb  alarms.o [1]
alarmsResetCounters     0x0801565f    0x70  Code  Gb  alarms.o [1]
alarmsShadow            0x20011b78    0x7c  Data  Gb  alarms.o [1]
analiz_ppp_rx           0x0802f1b5    0x98  Code  Gb  fppp3.o [1]
ans_in_ctrl_cl          0x08045464     0xc  Data  Gb  fppp3.o [1]
ans_out_232             0x0804566c     0x8  Data  Gb  fppp3.o [1]
ans_out_485_1           0x08045470     0xc  Data  Gb  fppp3.o [1]
ans_out_485_2           0x0804547c     0xc  Data  Gb  fppp3.o [1]
ans_out_config          0x08045488     0xc  Data  Gb  fppp3.o [1]
ans_out_mbus            0x08045494     0xc  Data  Gb  fppp3.o [1]
ans_out_st_contr        0x080451f4    0x10  Data  Gb  fppp3.o [1]
arm_cos_q15             0x0802a825    0x44  Code  Gb  arm_cos_q15.o [4]
arm_rms_q15             0x08025f19    0x5e  Code  Gb  arm_rms_q15.o [4]
arm_sin_q15             0x0802a7f1    0x34  Code  Gb  arm_sin_q15.o [4]
arm_sqrt_f32            0x0801c985    0x34  Code  Lc  dynaGram.o [1]
arm_sqrt_f32            0x080095d9    0x34  Code  Lc  main.o [1]
arm_sqrt_q15            0x080353f5    0xec  Code  Gb  arm_sqrt_q15.o [4]
array1                  0x2000e568   0x7e4  Data  Gb  main.o [1]
array2                  0x2000ed4c   0x7e4  Data  Gb  main.o [1]
arrayPtr                0x20012aa0     0x2  Data  Gb  main.o [1]
arrayRdy                0x20012b06     0x1  Data  Gb  main.o [1]
arrayTransmit           0x20012b07     0x1  Data  Gb  main.o [1]
at_com_rx               0x0802fb3b   0x344  Code  Gb  at_com4.o [1]
at_com_scen_init        0x0802fe99   0x2d6  Code  Gb  at_com4.o [1]
at_com_scen_stm_dc_1    0x080305a9   0x162  Code  Gb  at_com4.o [1]
at_com_scen_stm_sc      0x080304c7    0xda  Code  Gb  at_com4.o [1]
at_com_tx               0x0802f391   0x708  Code  Gb  at_com4.o [1]
atanf                   0x0802a899          Code  Gb  atanf.o [5]
atoi                    0x080384e7     0x8  Code  Gb  atoi.o [3]
atol                    0x08038699     0x8  Code  Gb  atol.o [3]
auchCRCHi               0x0804268c   0x100  Data  Gb  base1.o [1]
auchCRCLo               0x0804278c   0x100  Data  Gb  base1.o [1]
bkpSRAMInit             0x0800fad5    0x2c  Code  Gb  sram_rtc.o [1]
bkpSRAM_Read            0x0800ff2d    0x38  Code  Gb  sram_rtc.o [1]
bkpSRAM_Write           0x0800fef5    0x38  Code  Gb  sram_rtc.o [1]
buf_ack_opt_ipcp        0x200126e8    0x1c  Data  Gb  fppp3.o [1]
buf_ack_opt_lcp         0x20012694    0x1c  Data  Gb  fppp3.o [1]
buf_nak_opt_ipcp        0x20012704    0x1c  Data  Gb  fppp3.o [1]
buf_nak_opt_lcp         0x200126b0    0x1c  Data  Gb  fppp3.o [1]
buf_opt_tr              0x200127b8    0x14  Data  Gb  base1.o [1]
buf_rej_opt_ipcp        0x20012720    0x1c  Data  Gb  fppp3.o [1]
buf_rej_opt_lcp         0x200126cc    0x1c  Data  Gb  fppp3.o [1]
buf_tx_232              0x2000f530   0x44c  Data  Gb  base1.o [1]
burst_ds_r              0x0802b005    0x76  Code  Gb  fram1.o [1]
byteSize                0x20012a88     0x2  Data  Gb  fppp3.o [1]
calc_crc_ip             0x0802d4fd    0x82  Code  Gb  fppp3.o [1]
calc_crc_udp_2          0x0802d57f   0x118  Code  Gb  fppp3.o [1]
check_cts               0x0801f261    0x2a  Code  Gb  base1.o [1]
check_ln_conf           0x08021379    0x3a  Code  Gb  base1.o [1]
check_rx_ok             0x0802faa1    0x9a  Code  Gb  at_com4.o [1]
chrep                   0x20012904     0x8  Data  Gb  alarms.o [1]
chrepShadow             0x2001290c     0x8  Data  Gb  alarms.o [1]
clr_all_stack           0x0801eb31   0x6b8  Code  Gb  base1.o [1]
clr_cntr_link           0x0802014b    0x2c  Code  Gb  base1.o [1]
clr_cntr_nat            0x08020177    0x16  Code  Gb  base1.o [1]
clr_var_ppp             0x08020265   0x32a  Code  Gb  base1.o [1]
clr_var_ppp_rx          0x08020199    0xba  Code  Gb  base1.o [1]
cnt_clr_wdt             0x20012afe     0x1  Data  Gb  interr4.o [1]
cnt_com                 0x20012abe     0x1  Data  Gb  at_com4.o [1]
cnt_cts_off             0x20012a80     0x2  Data  Gb  base1.o [1]
cnt_flag_out            0x20012aff     0x1  Data  Gb  interr4.o [1]
cnt_incom               0x2001298c     0x4  Data  Gb  base1.o [1]
cnt_ip_tm_cntr          0x200129d8     0x4  Data  Gb  fppp3.o [1]
cnt_ipcp_tm_out         0x20012a8c     0x2  Data  Gb  fppp3.o [1]
cnt_lcp_tm_out          0x20012a8a     0x2  Data  Gb  fppp3.o [1]
cnt_link_res            0x20012970     0x4  Data  Gb  base1.o [1]
cnt_no_link             0x2001296c     0x4  Data  Gb  base1.o [1]
cnt_outcom              0x20012988     0x4  Data  Gb  base1.o [1]
cnt_pap_tm_out          0x20012a8e     0x2  Data  Gb  fppp3.o [1]
cnt_rst_ipcp            0x20012ae1     0x1  Data  Gb  fppp3.o [1]
cnt_rst_lcp             0x20012adf     0x1  Data  Gb  fppp3.o [1]
cnt_rst_pap             0x20012ae3     0x1  Data  Gb  fppp3.o [1]
cnt_sec                 0x20012a78     0x2  Data  Gb  base1.o [1]
cnt_stm_tm1             0x20012ac4     0x1  Data  Gb  base1.o [1]
cnt_stm_tm2             0x20012ac5     0x1  Data  Gb  base1.o [1]
cnt_supervosor          0x20012aba     0x2  Data  Gb  spvisor.o [1]
comand_WiFi             0x20012b1e     0x1  Data  Gb  scenario_softAP.o [1]
command                 0x20011c60    0x78  Data  Gb  pwm.o [1]
commandInit             0x0800a0d5   0x16e  Code  Gb  main.o [1]
commandShadow           0x20011cd8    0x78  Data  Gb  pwm.o [1]
command_AT              0x20012ac3     0x1  Data  Gb  base1.o [1]
compress_off            0x20012ad3     0x1  Data  Gb  fppp3.o [1]
context                 0x200113d0   0x130  Data  Gb  pwm.o [1]
contextInit             0x0800a25d   0x174  Code  Gb  main.o [1]
contextShadow           0x20011500   0x130  Data  Gb  pwm.o [1]
contr_sym_from_sim800   0x20012afd     0x1  Data  Gb  interr4.o [1]
convert_unix_2_date     0x08034fd5   0x19c  Code  Gb  utils.o [1]
copy_P                  0x080308c9    0x16  Code  Gb  utils.o [1]
copymas                 0x0800f895    0x18  Code  Gb  main.o [1]
copymasNSwap            0x0801158b    0x30  Code  Gb  modbus.o [1]
cos10Int8               0x2000028c    0x64  Data  Gb  main.o [1]
count_led               0x20012a94     0x2  Data  Gb  ledmd.o [1]
count_ppp_down          0x20012acb     0x1  Data  Gb  base1.o [1]
count_tx_ppp            0x20012a7c     0x2  Data  Gb  base1.o [1]
crc8                    0x0801e3df    0x44  Code  Gb  DS18B20.o [1]
crc_m1                  0x0801f217    0x4a  Code  Gb  base1.o [1]
crc_ozu                 0x0801f295   0x520  Code  Gb  base1.o [1]
dI                      0x20012b18     0x1  Data  Gb  pwm.o [1]
dacOutputs              0x200120bc    0x50  Data  Gb  pwm.o [1]
dacOutputsInit          0x0800a761   0x1fa  Code  Gb  main.o [1]
dacOutputsShadow        0x2001210c    0x50  Data  Gb  pwm.o [1]
debugOutput             0x08022d59     0x2  Code  Gb  scenario_softAP.o [1]
debugRS232Task          0x0800af69    0x70  Code  Gb  main.o [1]
decimatorCnt            0x20012b08     0x1  Data  Gb  main.o [1]
decodArhiv              0x080386b1  0x3098  Code  Gb  InitParam.o [1]
delay_pre_tx            0x20012a90     0x2  Data  Gb  fppp3.o [1]
deltaStab               0x20012ab8     0x2  Data  Gb  pwm.o [1]
diag                    0x20011bf4    0x6c  Data  Gb  main.o [1]
diagInit                0x08009fbd   0x118  Code  Gb  main.o [1]
digits                  0x0803c584    0x28  Data  Lc  xstoul.o [3]
div                     0x0803c42b     0xe  Code  Gb  div.o [3]
dmul                    0x0803d771    0x5a  Code  Lc  xdtento.o [5]
dynaGram                0x200117e8    0xb0  Data  Gb  dynaGram.o [1]
dynaGramAlarmFlag       0x20012b1a     0x1  Data  Gb  pwm.o [1]
dynaGramInit            0x0801c9b9   0x286  Code  Gb  dynaGram.o [1]
dynaGramTask            0x0801cc85   0xec0  Code  Gb  dynaGram.o [1]
dynaOutputData          0x20009788   0xc80  Data  Gb  dynaGram.o [1]
dynaPlot                0x2000fd30   0x358  Data  Gb  dynaGram.o [1]
dynaRawArray            0x2000a408   0x960  Data  Gb  dynaGram.o [1]
dynaRawData             0x2001299c     0x4  Data  Gb  dynaGram.o [1]
elamBuf                 0x20005c8c  0x13ec  Data  Gb  main.o [1]
emei                    0x200125dc    0x28  Data  Gb  at_com4.o [1]
energyCalcInit          0x0800afe9   0x144  Code  Gb  main.o [1]
energyCalcTask          0x0800b1c9   0xcd0  Code  Gb  main.o [1]
energy_plus             0x08020ab9    0x20  Code  Gb  base1.o [1]
engine                  0x20010e58   0x16c  Data  Gb  pwm.o [1]
engineETRInit           0x0801507d   0x5e2  Code  Gb  alarms.o [1]
engineInit              0x0800a99d   0x3f2  Code  Gb  main.o [1]
engineShadow            0x20010fc4   0x16c  Data  Gb  pwm.o [1]
etrEngine               0x20011dc0    0x5c  Data  Gb  alarms.o [1]
etrEngineShadow         0x20011e1c    0x5c  Data  Gb  alarms.o [1]
evc_rld_sv              0x08045554     0xc  Data  Gb  spvisor.o [1]
eventLogInit            0x0800ff65    0x58  Code  Gb  sram_rtc.o [1]
eventLogWrite           0x08010031   0xf8a  Code  Gb  sram_rtc.o [1]
eventRecord             0x20012a3c     0x4  Data  Gb  sram_rtc.o [1]
eventRecordPtr          0x20012a40     0x4  Data  Gb  sram_rtc.o [1]
event_modem             0x20012ac2     0x1  Data  Gb  base1.o [1]
eventsCnt               0x20011f2c    0x50  Data  Gb  alarms.o [1]
eventsCntInit           0x08016023   0x130  Code  Gb  alarms.o [1]
evm_at_err              0x080453f8     0xc  Data  Gb  base1.o [1]
evm_cts_err             0x08045428     0xc  Data  Gb  base1.o [1]
evm_dcd_err             0x08045410     0xc  Data  Gb  base1.o [1]
evm_no_rec              0x0804541c     0xc  Data  Gb  base1.o [1]
evm_ppp_err             0x08045404     0xc  Data  Gb  base1.o [1]
evm_tm                  0x08045654     0x8  Data  Gb  base1.o [1]
exit                    0x08044f73     0x4  Code  Gb  exit.o [3]
faultCountersReset      0x08015f95    0x8e  Code  Gb  alarms.o [1]
faultCountersUpdate     0x08015df5    0xf6  Code  Gb  alarms.o [1]
faultEventAdd           0x08015f01    0x8e  Code  Gb  alarms.o [1]
faultsArrayNVRAM        0x2001292c     0x4  Data  Gb  alarms.o [1]
faultsInit              0x08015b21   0x2be  Code  Gb  alarms.o [1]
fcstab                  0x0804201c   0x200  Data  Gb  fppp3.o [1]
ff_w                    0x200129e8     0x4  Data  Gb  fram1.o [1]
fff_w                   0x200129ec     0x4  Data  Gb  fram1.o [1]
fixFreq                 0x20012948     0x4  Data  Gb  alarms.o [1]
fixFreqInit             0x08016153    0x48  Code  Gb  alarms.o [1]
fixfreqTask             0x080161b1   0x112  Code  Gb  alarms.o [1]
fl_appl_seq             0x20012978     0x4  Data  Gb  base1.o [1]
fl_appl_seq1            0x2001297c     0x4  Data  Gb  base1.o [1]
fl_at_com               0x20012950     0x4  Data  Gb  at_com4.o [1]
fl_conf_modem           0x2001294c     0x4  Data  Gb  at_com4.o [1]
fl_cts_232              0x2001295c     0x4  Data  Gb  base1.o [1]
fl_cts_232_ignor        0x20012ac7     0x1  Data  Gb  base1.o [1]
fl_ip                   0x200129c0     0x4  Data  Gb  fppp3.o [1]
fl_ipcp                 0x200129bc     0x4  Data  Gb  fppp3.o [1]
fl_ipcp1                0x200129cc     0x4  Data  Gb  fppp3.o [1]
fl_ipcp2                0x200129d4     0x4  Data  Gb  fppp3.o [1]
fl_lcp                  0x200129b8     0x4  Data  Gb  fppp3.o [1]
fl_lcp1                 0x200129c8     0x4  Data  Gb  fppp3.o [1]
fl_lcp2                 0x200129d0     0x4  Data  Gb  fppp3.o [1]
fl_pap                  0x200129c4     0x4  Data  Gb  fppp3.o [1]
fl_pg_out               0x200129e4     0x4  Data  Gb  fppp3.o [1]
fl_reg3                 0x20012980     0x4  Data  Gb  base1.o [1]
fl_rewrite              0x200129b4     0x4  Data  Gb  fppp3.o [1]
fl_rx_ppp               0x200129f0     0x4  Data  Gb  interr4.o [1]
fl_truffic              0x20012990     0x4  Data  Gb  base1.o [1]
fl_tx485                0x20012974     0x4  Data  Gb  base1.o [1]
fl_wdt                  0x20012958     0x4  Data  Gb  base1.o [1]
floatToBytes            0x080117a5    0x1a  Code  Gb  modbus.o [1]
form_buf_tx_ppp         0x0801fce5   0x466  Code  Gb  base1.o [1]
framRead                0x0801c725   0x252  Code  Gb  fram.o [1]
framWrite               0x0801c5e9   0x13c  Code  Gb  fram.o [1]
framWriteSim800         0x0802b305   0x224  Code  Gb  fram1.o [1]
freqCorrection          0x08015a49    0xd2  Code  Gb  alarms.o [1]
fromUnix                0x0800fe09    0xec  Code  Gb  sram_rtc.o [1]
fun_state_md            0x080351fd    0xc4  Code  Gb  ledmd.o [1]
getDataTimeTask         0x0800fccd    0xc6  Code  Gb  sram_rtc.o [1]
getFaultBits            0x08015a31    0x16  Code  Gb  alarms.o [1]
getTemperatureTask      0x0801e6a9   0x418  Code  Gb  DS18B20.o [1]
getTimeMS               0x080098fd    0x1e  Code  Gb  main.o [1]
hUsbDeviceFS            0x200103b8   0x224  Data  Gb  usb_device.o [1]
hadc1                   0x20012230    0x44  Data  Gb  main.o [1]
hadc2                   0x20012274    0x44  Data  Gb  main.o [1]
hadc3                   0x200122b8    0x44  Data  Gb  main.o [1]
handlerTC               0x0800f3ad   0x24c  Code  Gb  main.o [1]
hdac                    0x200127e0    0x14  Data  Gb  main.o [1]
hdma_adc1               0x20011fcc    0x50  Data  Gb  main.o [1]
hdma_uart5_tx           0x2001206c    0x50  Data  Gb  main.o [1]
hdma_usart2_tx          0x2001201c    0x50  Data  Gb  main.o [1]
hiwdg                   0x20012890    0x10  Data  Gb  main.o [1]
hpcd_USB_OTG_FS         0x2000f97c   0x3b4  Data  Gb  usbd_conf.o [1]
hrtc                    0x20012674    0x20  Data  Gb  sram_rtc.o [1]
htim1                   0x200124b0    0x3c  Data  Gb  main.o [1]
htim2                   0x200124ec    0x3c  Data  Gb  main.o [1]
htim3                   0x20012528    0x3c  Data  Gb  main.o [1]
htim4                   0x20012564    0x3c  Data  Gb  main.o [1]
htim5                   0x200125a0    0x3c  Data  Gb  main.o [1]
htmlList                0x200119d0    0x98  Data  Gb  utils.o [1]
html_br                 0x080456cc     0x8  Data  Gb  utils.o [1]
html_end                0x08043138    0x4c  Data  Gb  utils.o [1]
html_end_1              0x08043184    0x4c  Data  Gb  utils.o [1]
html_end_2              0x08044a9c    0x20  Data  Gb  utils.o [1]
html_font_color_1       0x08044a7c    0x20  Data  Gb  utils.o [1]
html_font_color_2       0x08045304    0x10  Data  Gb  utils.o [1]
html_input_type_1       0x08044f1c    0x1c  Data  Gb  utils.o [1]
html_input_type_2       0x080455c0     0xc  Data  Gb  utils.o [1]
html_input_type_3       0x080455cc     0xc  Data  Gb  utils.o [1]
html_menu_1             0x08045314    0x10  Data  Gb  utils.o [1]
html_menu_2             0x08045324    0x10  Data  Gb  utils.o [1]
html_menu_3             0x080455e4     0xc  Data  Gb  utils.o [1]
html_menu_begin         0x08042d90    0x58  Data  Gb  utils.o [1]
html_menu_end           0x08045140    0x14  Data  Gb  utils.o [1]
html_method             0x08044350    0x28  Data  Gb  utils.o [1]
html_method_get_1       0x080452f4    0x10  Data  Gb  utils.o [1]
html_method_get_2       0x08045074    0x18  Data  Gb  utils.o [1]
html_text_1             0x080456d4     0x4  Data  Gb  utils.o [1]
html_text_2             0x080456d8     0x4  Data  Gb  utils.o [1]
html_text_3             0x080456c4     0x8  Data  Gb  utils.o [1]
html_text_black         0x08044748    0x24  Data  Gb  utils.o [1]
html_text_blue          0x0804476c    0x24  Data  Gb  utils.o [1]
huart2                  0x200122fc    0x40  Data  Gb  main.o [1]
huart3                  0x2001233c    0x40  Data  Gb  main.o [1]
huart4                  0x2001237c    0x40  Data  Gb  main.o [1]
huart5                  0x200123bc    0x40  Data  Gb  main.o [1]
i2cByteRead             0x0801c4b3    0x52  Code  Gb  fram.o [1]
i2cByteWrite            0x0801c3fb    0xb8  Code  Gb  fram.o [1]
i2cDelay                0x0801c3ed     0xe  Code  Gb  fram.o [1]
i_scan_ipcp             0x20012aec     0x1  Data  Gb  fppp3.o [1]
i_scan_lcp              0x20012ae7     0x1  Data  Gb  fppp3.o [1]
i_scj_ipcp              0x20012aed     0x1  Data  Gb  fppp3.o [1]
i_scj_lcp               0x20012ae8     0x1  Data  Gb  fppp3.o [1]
i_scr_ipcp              0x20012aeb     0x1  Data  Gb  fppp3.o [1]
i_scr_lcp               0x20012ae6     0x1  Data  Gb  fppp3.o [1]
i_scr_pap               0x20012af0     0x1  Data  Gb  fppp3.o [1]
i_sta_ipcp              0x20012aef     0x1  Data  Gb  fppp3.o [1]
i_sta_lcp               0x20012aea     0x1  Data  Gb  fppp3.o [1]
i_str_ipcp              0x20012aee     0x1  Data  Gb  fppp3.o [1]
i_str_lcp               0x20012ae9     0x1  Data  Gb  fppp3.o [1]
icReset                 0x0801c505    0xe4  Code  Gb  fram.o [1]
id                      0x20012a14     0x4  Data  Gb  main.o [1]
id_pg_appl              0x20012afa     0x1  Data  Gb  fppp3.o [1]
inBuffer                0x2000c568   0x800  Data  Gb  read_write.o [1]
init_mparams            0x080361f7    0x32  Code  Lc  dlmalloc.o [3]
init_pin_sim800         0x08025eb5    0x64  Code  Gb  init_pin_sim.o [1]
init_pins_hiz_to_out    0x0801f9ed     0xc  Code  Gb  base1.o [1]
init_pins_out_to_hiz    0x0801f9e1     0xc  Code  Gb  base1.o [1]
init_scen_stm_sc        0x080303cd    0xfa  Code  Gb  at_com4.o [1]
init_scen_stm_si        0x080301b1   0x206  Code  Gb  at_com4.o [1]
init_top                0x08036229    0x34  Code  Lc  dlmalloc.o [3]
ip_change               0x20012af9     0x1  Data  Gb  fppp3.o [1]
ip_ls                   0x20012960     0x4  Data  Gb  base1.o [1]
ip_pri_dns              0x200129dc     0x4  Data  Gb  fppp3.o [1]
ip_sec_dns              0x200129e0     0x4  Data  Gb  fppp3.o [1]
ip_self                 0x20012984     0x4  Data  Gb  base1.o [1]
iq                      0x20012a18     0x4  Data  Gb  main.o [1]
iwdgFlag                0x20012b0a     0x1  Data  Gb  main.o [1]
keys                    0x200128d4     0xc  Data  Gb  ldterm_stm.o [1]
keys_def                0x08045674     0x8  Data  Gb  ldterm_stm.o [1]
kodirovka               0x0802b84d    0x1e  Code  Gb  coder.o [1]
layer_PPP               0x20012ac9     0x1  Data  Gb  base1.o [1]
lmos                    0x08044ffc    0x18  Data  Gb  sram_rtc.o [1]
ln_ack_ipcp             0x20012af7     0x1  Data  Gb  fppp3.o [1]
ln_ack_lcp              0x20012af3     0x1  Data  Gb  fppp3.o [1]
ln_nak_ipcp             0x20012af8     0x1  Data  Gb  fppp3.o [1]
ln_nak_lcp              0x20012af4     0x1  Data  Gb  fppp3.o [1]
ln_rej_ipcp             0x20012af6     0x1  Data  Gb  fppp3.o [1]
ln_rej_lcp              0x20012af2     0x1  Data  Gb  fppp3.o [1]
ln_rejc_ipcp            0x20012af5     0x1  Data  Gb  fppp3.o [1]
ln_rejc_lcp             0x20012af1     0x1  Data  Gb  fppp3.o [1]
load_par_from_memory_no
                        0x0801f7f9   0x16a  Code  Gb  base1.o [1]
lock_it                 0x0801f207    0x10  Code  Gb  base1.o [1]
lufkinCardForce         0x20010088   0x330  Data  Gb  dynaGram.o [1]
main                    0x08009921   0x59a  Code  Gb  main.o [1]
map_vers                0x08045234    0x10  Data  Gb  ldterm_stm.o [1]
measurements            0x20010cd4   0x184  Data  Gb  pwm.o [1]
memchr                  0x0803c1ed          Code  Gb  memchr.o [6]
milisecund_handler_sim800
                        0x080240f5   0x350  Code  Gb  interr4.o [1]
modBusCRC16             0x080114e5    0x40  Code  Gb  modbus.o [1]
modbusAddr              0x20012aa4     0x2  Data  Gb  main.o [1]
modbusRegistersEdit     0x080117c1  0x37ea  Code  Gb  modbus.o [1]
modbusSlaveTask         0x080115bb   0x1d6  Code  Gb  modbus.o [1]
modbusTask              0x0800ae15   0x14c  Code  Gb  main.o [1]
modem_engine            0x08020b81   0x698  Code  Gb  base1.o [1]
monitor_act_IPCP        0x0802d0c5    0x66  Code  Gb  fppp3.o [1]
monitor_act_LCP         0x0802c465    0x64  Code  Gb  fppp3.o [1]
monitor_act_PAP         0x0802bfab   0x3a6  Code  Gb  fppp3.o [1]
monitor_cntr_ch         0x080205a1   0x13c  Code  Gb  base1.o [1]
monitor_cntr_cl_seq     0x080207a5   0x120  Code  Gb  base1.o [1]
monitor_cntr_nat        0x080206e5    0x88  Code  Gb  base1.o [1]
monitor_event_IPCP      0x0802d14d   0x334  Code  Gb  fppp3.o [1]
monitor_event_LCP       0x0802c519   0x4a0  Code  Gb  fppp3.o [1]
monitor_event_PAP       0x0802c351   0x10c  Code  Gb  fppp3.o [1]
monitor_wr_truffic      0x0802290d    0x90  Code  Gb  base1.o [1]
mos                     0x08045014    0x18  Data  Gb  sram_rtc.o [1]
mparams                 0x200127a0    0x18  Data  Lc  dlmalloc.o [3]
msg_ctrl_ch             0x08045434     0xc  Data  Gb  base1.o [1]
msg_ctrl_nat            0x08045440     0xc  Data  Gb  base1.o [1]
msg_evc                 0x0804565c     0x8  Data  Gb  base1.o [1]
ndigs                   0x0803c5ac    0x28  Data  Lc  xstoul.o [3]
newBVITask              0x08022ab9   0x26c  Code  Gb  bvi.o [1]
noPhaseTask             0x0800960d   0x2f0  Code  Gb  main.o [1]
num_self                0x20012a82     0x2  Data  Gb  base1.o [1]
num_seq_cl              0x20012a84     0x2  Data  Gb  base1.o [1]
oneSec                  0x20012b11     0x1  Data  Gb  main.o [1]
one_secund_proc         0x08024445   0x1f6  Code  Gb  interr4.o [1]
outBuffer               0x2000cd68   0x800  Data  Gb  read_write.o [1]
p2p                     0x200129b0     0x4  Data  Gb  fppp3.o [1]
pErr                    0x20012a28     0x4  Data  Gb  main.o [1]
pErrPrev                0x20012a2c     0x4  Data  Gb  main.o [1]
pErrPrevReady           0x20012b13     0x1  Data  Gb  main.o [1]
packetCnt               0x20012b09     0x1  Data  Gb  main.o [1]
pap_act_buf             0x20012ad4     0x1  Data  Gb  fppp3.o [1]
pg_crc                  0x20012a92     0x2  Data  Gb  fppp3.o [1]
pidVoltage              0x20012808    0x14  Data  Gb  main.o [1]
point_log_buf           0x20012b01     0x1  Data  Gb  logs.o [1]
port_udp                0x20012a86     0x2  Data  Gb  base1.o [1]
powerStabTrigger        0x20012b16     0x1  Data  Gb  main.o [1]
pows                    0x0803d928    0x48  Data  Lc  xdtento.o [5]
pppfcs16                0x0802b92d    0x2e  Code  Gb  fppp3.o [1]
prepend_alloc           0x0803625d   0x36e  Code  Lc  dlmalloc.o [3]
prevDP                  0x20012930     0x8  Data  Gb  main.o [1]
prevPWMstab             0x20012ab6     0x2  Data  Gb  pwm.o [1]
prevPidPrescaler        0x20012aaa     0x2  Data  Gb  main.o [1]
proc_config             0x080213b5  0x1554  Code  Gb  base1.o [1]
proc_option             0x0802e121   0x500  Code  Gb  fppp3.o [1]
proc_ppp_packet         0x0802d697   0x9a0  Code  Gb  fppp3.o [1]
proc_udp_data           0x0802e72d   0xa88  Code  Gb  fppp3.o [1]
processedRegs           0x20012ab4     0x2  Data  Gb  modbus.o [1]
progVersionString       0x08044260    0x28  Data  Gb  main.o [1]
prov_ozu                0x20012a7a     0x2  Data  Gb  base1.o [1]
prov_uk_in              0x0802b88d    0x50  Code  Gb  fppp3.o [1]
prov_uk_in_ipcp         0x0802b8dd    0x50  Code  Gb  fppp3.o [1]
puk                     0x20012a38     0x4  Data  Gb  scenario_softAP.o [1]
q10Im                   0x200129f8     0x4  Data  Gb  main.o [1]
q10Real                 0x200129f4     0x4  Data  Gb  main.o [1]
rand                    0x080376dd    0xe0  Code  Gb  rand.o [3]
rcvd_protokol           0x20012ae5     0x1  Data  Gb  fppp3.o [1]
read_modbus             0x0803850d   0x18c  Code  Gb  read_write.o [1]
real_time               0x20012924     0x8  Data  Gb  fram1.o [1]
rec_ctrl_ch             0x08045458     0xc  Data  Gb  fppp3.o [1]
rec_evc                 0x08045664     0x8  Data  Gb  fppp3.o [1]
recive_buf1             0x08023de9   0x186  Code  Gb  interr4.o [1]
recive_buf2             0x08023f6f   0x186  Code  Gb  interr4.o [1]
recordType              0x080177d1    0x78  Code  Gb  archive.o [1]
regularStart            0x20012b19     0x1  Data  Gb  pwm.o [1]
rep                     0x20012abf     0x1  Data  Gb  at_com4.o [1]
req_out_ctrl_cl         0x0804544c     0xc  Data  Gb  base1.o [1]
reset_ESP               0x08022d25    0x2a  Code  Gb  scenario_softAP.o [1]
reset_uart_prep_sim800  0x0801f1e9    0x1e  Code  Gb  base1.o [1]
ret_version             0x08030741    0x98  Code  Gb  ldterm_stm.o [1]
rinatTimer              0x20012b10     0x1  Data  Gb  main.o [1]
rs232TxBuf              0x2000ad68   0x800  Data  Gb  main.o [1]
rs232TxPtr              0x20012a9a     0x2  Data  Gb  main.o [1]
rs485DataReady          0x20012b04     0x1  Data  Gb  main.o [1]
rs485InputByte          0x20012b02     0x1  Data  Gb  main.o [1]
rs485RxBuf              0x200034b4  0x13ec  Data  Gb  main.o [1]
rs485RxPtr              0x20012a96     0x2  Data  Gb  main.o [1]
rs485TxBuf              0x200048a0  0x13ec  Data  Gb  main.o [1]
rs485TxPtr              0x20012a98     0x2  Data  Gb  main.o [1]
rtcInit                 0x0800fbe3    0x9a  Code  Gb  sram_rtc.o [1]
run_ipcp_act            0x0802c9e9   0x6d4  Code  Gb  fppp3.o [1]
run_lcp_act             0x0802ba19   0x592  Code  Gb  fppp3.o [1]
s1                      0x080451d4    0x10  Data  Gb  coder.o [1]
s2                      0x080451e4    0x10  Data  Gb  coder.o [1]
sAnswerID               0x200128a0    0x10  Data  Gb  utils.o [1]
sFindChanel             0x20012940     0x8  Data  Gb  utils.o [1]
sID                     0x200128f8     0xc  Data  Gb  utils.o [1]
scalarProduct           0x20012a24     0x4  Data  Gb  main.o [1]
scalarProductMean       0x20012a34     0x4  Data  Gb  main.o [1]
scalarProductSum        0x20012a30     0x4  Data  Gb  main.o [1]
scenario                0x08022d5d   0xe30  Code  Gb  scenario_softAP.o [1]
segment_holding         0x080361dd    0x1a  Code  Lc  dlmalloc.o [3]
send_err485             0x08021221    0xae  Code  Gb  base1.o [1]
send_info               0x080229e1     0x2  Code  Gb  base1.o [1]
send_no_sinc            0x0802e037    0xb4  Code  Gb  fppp3.o [1]
send_size_pg            0x0802e639    0x8c  Code  Gb  fppp3.o [1]
send_terminate_lcp      0x0802b95b    0xbe  Code  Gb  fppp3.o [1]
sending_at_pac          0x0802f321    0x70  Code  Gb  at_com4.o [1]
sending_ppp_pac         0x08023bd9   0x210  Code  Gb  interr4.o [1]
serch_point_log         0x0802b5b3    0xf0  Code  Gb  logs.o [1]
setFreqRoutine          0x08018551   0x1c2  Code  Gb  pwm.o [1]
shl                     0x0802b6ad    0x20  Code  Gb  coder.o [1]
shortCurrentCheck       0x200004b0     0x2  Data  Gb  pwm.o [1]
sim800Data              0x20012afb     0x1  Data  Gb  interr4.o [1]
sim800Settings          0x20011ed4    0x58  Data  Gb  prepare_sim800.o [1]
sim800StructInit        0x08026655    0xc6  Code  Gb  prepare_sim800.o [1]
sim800StructToFlash     0x0802671b    0xc4  Code  Gb  prepare_sim800.o [1]
simka                   0x20012b30     0x1  Data  Gb  base1.o [1]
sin10Int8               0x200002f0    0x64  Data  Gb  main.o [1]
sinTable_q15            0x08041c18   0x404  Data  Gb  arm_common_tables.o [4]
slideWindow             0x200109b4   0x194  Data  Gb  main.o [1]
slideWindowFull         0x20012b14     0x1  Data  Gb  main.o [1]
slideWindowPtr          0x20012aa8     0x2  Data  Gb  main.o [1]
speed_modem             0x20012ac0     0x1  Data  Gb  at_com4.o [1]
sprintf                 0x08030895    0x34  Code  Gb  sprintf.o [3]
sqrt                    0x0800f955          Code  Gb  sqrt.o [5]
sqrtf                   0x0800f8d1          Code  Gb  sqrtf.o [5]
sqrtl                   0x0800f955          Code  Gb  sqrt.o [5]
stabState               0x20012b17     0x1  Data  Gb  pwm.o [1]
startTick               0x20012a00     0x4  Data  Gb  main.o [1]
start_func_stm_koff     0x0801fa71    0x5a  Code  Gb  base1.o [1]
start_func_stm_kon      0x0801fb61    0x20  Code  Gb  base1.o [1]
start_func_stm_off      0x0801f9f9    0x52  Code  Gb  base1.o [1]
start_func_stm_on       0x0801faf1    0x70  Code  Gb  base1.o [1]
start_func_stm_pwk      0x0801fb81    0x2e  Code  Gb  base1.o [1]
start_func_stm_scp      0x0801fbbd    0xf4  Code  Gb  base1.o [1]
stateDOUT               0x20012b0e     0x1  Data  Gb  main.o [1]
state_led_md            0x20012b00     0x1  Data  Gb  ledmd.o [1]
state_modem             0x20012ac1     0x1  Data  Gb  base1.o [1]
stm_base_sim            0x080453ec     0xc  Data  Gb  base1.o [1]
stm_pin1_err            0x080451b4    0x10  Data  Gb  at_com4.o [1]
stm_pin1_ok             0x08045194    0x10  Data  Gb  at_com4.o [1]
stm_pin2_err            0x080451c4    0x10  Data  Gb  at_com4.o [1]
stm_pin2_ok             0x080451a4    0x10  Data  Gb  at_com4.o [1]
stm_ppp                 0x0804564c     0x8  Data  Gb  base1.o [1]
stm_pwr_koff            0x080453e0     0xc  Data  Gb  base1.o [1]
stm_pwr_kon             0x080453c8     0xc  Data  Gb  base1.o [1]
stm_pwr_off             0x080453d4     0xc  Data  Gb  base1.o [1]
stm_pwr_on              0x080453bc     0xc  Data  Gb  base1.o [1]
stm_sc                  0x0804563c     0x8  Data  Gb  base1.o [1]
stm_scp                 0x08045644     0x8  Data  Gb  base1.o [1]
stm_si                  0x08045634     0x8  Data  Gb  base1.o [1]
stopTick                0x20012a04     0x4  Data  Gb  main.o [1]
strcat                  0x080384ef    0x1c  Code  Gb  strcat.o [3]
strchr                  0x0803c1d5          Code  Gb  strchr.o [6]
strlen                  0x08037869          Code  Gb  strlen.o [6]
supervisorwdt           0x0802f2f1    0x30  Code  Gb  spvisor.o [1]
swap                    0x0802b881     0xc  Code  Gb  fppp3.o [1]
swapregs                0x0801155f    0x2c  Code  Gb  modbus.o [1]
switchDOtoPWM           0x0801c385    0x26  Code  Gb  pwm.o [1]
switchPWMtoDO           0x0801c363    0x22  Code  Gb  pwm.o [1]
sys_alloc               0x080365cb   0x38c  Code  Lc  dlmalloc.o [3]
systemState             0x20012474    0x3c  Data  Gb  main.o [1]
systemTimeUpdate        0x0800fc7d    0x50  Code  Gb  sram_rtc.o [1]
tapRecord               0x20012830    0x10  Data  Gb  archive.o [1]
tapsConfig              0x20011f7c    0x50  Data  Gb  archive.o [1]
tapsUpdateCnt           0x20010b48   0x18c  Data  Gb  archive.o [1]
tcStart                 0x20012aae     0x2  Data  Gb  main.o [1]
tcTemp                  0x20012aac     0x2  Data  Gb  main.o [1]
tempSensor              0x2001215c    0x48  Data  Gb  DS18B20.o [1]
tempSensorsInit         0x0801e423   0x286  Code  Gb  DS18B20.o [1]
tempo_pac               0x20012afc     0x1  Data  Gb  interr4.o [1]
tiiInit                 0x08016795   0x16c  Code  Gb  archive.o [1]
tiiTask                 0x08016901   0xa96  Code  Gb  archive.o [1]
timeStampsUpdate        0x080173b1   0x3fc  Code  Gb  archive.o [1]
time_cnt_ch_time        0x20012aca     0x1  Data  Gb  base1.o [1]
titRoutine              0x08018713    0x7e  Code  Gb  pwm.o [1]
tmalloc_large           0x08036965   0x39a  Code  Lc  dlmalloc.o [3]
tmalloc_small           0x08036cff   0x210  Code  Lc  dlmalloc.o [3]
toUnix                  0x0800fd93    0x76  Code  Gb  sram_rtc.o [1]
transform_buf           0x0802b6f7   0x156  Code  Gb  coder.o [1]
u_2_date                0x20012b2b     0x1  Data  Gb  utils.o [1]
u_2_hor                 0x20012b29     0x1  Data  Gb  utils.o [1]
u_2_min                 0x20012b28     0x1  Data  Gb  utils.o [1]
u_2_month               0x20012b2a     0x1  Data  Gb  utils.o [1]
u_2_sec                 0x20012b27     0x1  Data  Gb  utils.o [1]
u_2_year                0x20012b2c     0x1  Data  Gb  utils.o [1]
udc_1kHz_data           0x20011720    0xc8  Data  Gb  main.o [1]
udc_1kHz_decimator      0x20012b0c     0x1  Data  Gb  main.o [1]
udc_1kHz_decimator_max  0x20012b0d     0x1  Data  Gb  main.o [1]
udc_1kHz_ptr            0x20012b0b     0x1  Data  Gb  main.o [1]
uk_in_act_IPCP          0x20012add     0x1  Data  Gb  fppp3.o [1]
uk_in_act_LCP           0x20012adb     0x1  Data  Gb  fppp3.o [1]
uk_out_act_IPCP         0x20012ade     0x1  Data  Gb  fppp3.o [1]
uk_out_act_LCP          0x20012adc     0x1  Data  Gb  fppp3.o [1]
unix                    0x20012954     0x4  Data  Gb  base1.o [1]
uwTick                  0x20012a4c     0x4  Data  Lc  stm32f4xx_hal.o [1]
val_DWord               0x20012a68     0x4  Data  Gb  utils.o [1]
val_Float               0x20012a60     0x4  Data  Gb  utils.o [1]
val_Integer             0x20012a64     0x4  Data  Gb  utils.o [1]
vcpDataLen              0x20012aa6     0x2  Data  Gb  main.o [1]
vcpDataPtr              0x20012a08     0x4  Data  Gb  main.o [1]
vcpDataRdy              0x20012b12     0x1  Data  Gb  main.o [1]
vd                      0x20012a1c     0x4  Data  Gb  main.o [1]
vectorPWM               0x20011ae8    0x90  Data  Gb  pwm.o [1]
vectorPWMInit           0x080182ff    0x42  Code  Gb  pwm.o [1]
vectorPWMSetPhi0        0x080182cd    0x32  Code  Gb  pwm.o [1]
vectorPWMcalc           0x080187d5  0x3a9e  Code  Gb  pwm.o [1]
versia                  0x08044238    0x28  Data  Gb  ldterm_stm.o [1]
vol_cnt_link_res        0x20012968     0x4  Data  Gb  base1.o [1]
vol_cnt_no_link         0x20012964     0x4  Data  Gb  base1.o [1]
vol_cnt_rst_ipcp        0x20012ae2     0x1  Data  Gb  fppp3.o [1]
vol_cnt_rst_lcp         0x20012ae0     0x1  Data  Gb  fppp3.o [1]
vol_cnt_rst_pap         0x20012ae4     0x1  Data  Gb  fppp3.o [1]
vol_tx_ppp              0x20012a7e     0x2  Data  Gb  base1.o [1]
voltageStabHyst         0x20012b15     0x1  Data  Gb  main.o [1]
voltageStabShift        0x20012ab0     0x2  Data  Gb  main.o [1]
vosstan_memory_no       0x080307d9    0xa6  Code  Gb  ldterm_stm.o [1]
vq                      0x20012a20     0x4  Data  Gb  main.o [1]
waitForWiFiFlag         0x20012b0f     0x1  Data  Gb  main.o [1]
wd_sec                  0x20012b1b     0x1  Data  Gb  scenario_softAP.o [1]
wd_sec_wait_rx          0x20012b1d     0x1  Data  Gb  scenario_softAP.o [1]
wifiDataReady           0x20012b05     0x1  Data  Gb  main.o [1]
wifiInputByte           0x20012b03     0x1  Data  Gb  main.o [1]
wifiRxBuf               0x2000b568   0x800  Data  Gb  main.o [1]
wifiRxPtr               0x20012a9c     0x2  Data  Gb  main.o [1]
wifiTimeOutTimer        0x200129fc     0x4  Data  Gb  main.o [1]
wifiTxBuf               0x2000bd68   0x800  Data  Gb  main.o [1]
wifiTxPtr               0x20012a9e     0x2  Data  Gb  main.o [1]
work_bit                0x20012b1c     0x1  Data  Gb  scenario_softAP.o [1]
write_log_info          0x0802b56d    0x46  Code  Gb  logs.o [1]
zamena                  0x0802b6cd    0x2a  Code  Gb  coder.o [1]
zapr_from_sim800        0x20012ad2     0x1  Data  Gb  fppp3.o [1]


[1] = F:\’Ņ„“Ó\UD\CHREP_V3_2\EWARM\vectorPWM Configuration\Obj
[2] = command line
[3] = dl7M_tln.a
[4] = iar_cortexM4lf_math.a
[5] = m7M_tlv.a
[6] = rt7M_tl.a
[7] = shb_l.a

  216 648 bytes of readonly  code memory
   68 567 bytes of readonly  data memory
   88 878 bytes of readwrite data memory

Errors: none
Warnings: none
